ccopy_reg
_reconstructor
p1
(ccanto.feedparser_builtin
FeedParserDict
p2
c__builtin__
dict
p3
(dp4
S'feed'
p5
g1
(g2
g3
(dp6
S'title_detail'
p7
g1
(g2
g3
(dp8
S'base'
p9
S'http://www.reddit.com/.rss?feed=561d220b9383038cb7b3c7a016043e53aff43bf4&user=dunz'
p10
sS'type'
p11
S'text/plain'
p12
sS'language'
p13
NsS'value'
p14
Vreddit: the front page of the internet
p15
stRp16
sS'subtitle'
p17
V
sS'links'
p18
(lp19
g1
(g2
g3
(dp20
S'href'
p21
Vhttp://www.reddit.com/
p22
sg11
S'text/html'
p23
sS'rel'
p24
S'alternate'
p25
stRp26
ag1
(g2
g3
(dp27
g11
g23
sg24
g25
stRp28
asS'title'
p29
g15
sS'link'
p30
g22
sS'image'
p31
g1
(g2
g3
(dp32
g21
Vhttp://www.reddit.com/reddit.com.header.png
p33
sg30
Vhttp://www.reddit.com/
p34
sg29
Vreddit: the front page of the internet
p35
stRp36
sS'subtitle_detail'
p37
g1
(g2
g3
(dp38
g9
S'http://www.reddit.com/.rss?feed=561d220b9383038cb7b3c7a016043e53aff43bf4&user=dunz'
p39
sg11
S'text/html'
p40
sg13
Nsg14
V
stRp41
stRp42
sS'status'
p43
I200
sS'encoding'
p44
S'UTF-8'
p45
sS'bozo'
p46
I0
sS'entries'
p47
(lp48
g1
(g2
g3
(dp49
S'updated'
p50
VTue, 03 Jul 2012 21:04:18 +0000
p51
sS'updated_parsed'
p52
ctime
struct_time
p53
((I2012
I7
I3
I21
I4
I18
I1
I185
I0
t(dtRp54
sg18
(lp55
g1
(g2
g3
(dp56
g21
Vhttp://www.reddit.com/r/science/comments/vzy35/first_vein_grown_from_human_stem_cells/
p57
sg11
g23
sg24
g25
stRp58
asg29
VFirst vein grown from human stem cells successfully transplanted into a young girl
p59
sS'summary_detail'
p60
g1
(g2
g3
(dp61
g9
S'http://www.reddit.com/.rss?feed=561d220b9383038cb7b3c7a016043e53aff43bf4&user=dunz'
p62
sg11
S'text/html'
p63
sg13
Nsg14
Vsubmitted by <a href="http://www.reddit.com/user/JB_UK"> JB_UK </a> to <a href="http://www.reddit.com/r/science/"> science</a> <br /> <a href="http://blogs.nature.com/news/2012/06/first-vein-grown-from-human-stem-cells-successfully-transplanted-into-a-young-girl.html">[link]</a> <a href="http://www.reddit.com/r/science/comments/vzy35/first_vein_grown_from_human_stem_cells/">[215 comments]</a>
p64
stRp65
sS'summary'
p66
g64
sS'guidislink'
p67
I00
sS'title_detail'
p68
g1
(g2
g3
(dp69
g9
S'http://www.reddit.com/.rss?feed=561d220b9383038cb7b3c7a016043e53aff43bf4&user=dunz'
p70
sg11
S'text/plain'
p71
sg13
Nsg14
g59
stRp72
sg30
g57
sS'canto_state'
p73
(lp74
Vreddit: the front page of the internet
p75
aV*
asS'id'
p76
Vhttp://www.reddit.com/r/science/comments/vzy35/first_vein_grown_from_human_stem_cells/
p77
stRp78
ag1
(g2
g3
(dp79
g50
VTue, 03 Jul 2012 19:32:13 +0000
p80
sg52
g53
((I2012
I7
I3
I19
I32
I13
I1
I185
I0
t(dtRp81
sg18
(lp82
g1
(g2
g3
(dp83
g21
Vhttp://www.reddit.com/r/movies/comments/vzs9z/my_friend_works_for_a_company_that_makes_those/
p84
sg11
g23
sg24
g25
stRp85
asg29
VMy friend works for a company that makes those 'Precious Moments' figurines, this concept was sadly rejected... (Aliens)
p86
sS'summary_detail'
p87
g1
(g2
g3
(dp88
g9
S'http://www.reddit.com/.rss?feed=561d220b9383038cb7b3c7a016043e53aff43bf4&user=dunz'
p89
sg11
S'text/html'
p90
sg13
Nsg14
Vsubmitted by <a href="http://www.reddit.com/user/crapidrawatwork"> crapidrawatwork </a> to <a href="http://www.reddit.com/r/movies/"> movies</a> <br /> <a href="http://i.imgur.com/CpTId.jpg">[link]</a> <a href="http://www.reddit.com/r/movies/comments/vzs9z/my_friend_works_for_a_company_that_makes_those/">[241 comments]</a>
p91
stRp92
sg66
g91
sg67
I00
sS'title_detail'
p93
g1
(g2
g3
(dp94
g9
S'http://www.reddit.com/.rss?feed=561d220b9383038cb7b3c7a016043e53aff43bf4&user=dunz'
p95
sg11
S'text/plain'
p96
sg13
Nsg14
g86
stRp97
sg30
g84
sg73
(lp98
g75
aV*
asg76
Vhttp://www.reddit.com/r/movies/comments/vzs9z/my_friend_works_for_a_company_that_makes_those/
p99
stRp100
ag1
(g2
g3
(dp101
g50
VTue, 03 Jul 2012 22:22:32 +0000
p102
sg52
g53
((I2012
I7
I3
I22
I22
I32
I1
I185
I0
t(dtRp103
sg18
(lp104
g1
(g2
g3
(dp105
g21
Vhttp://www.reddit.com/r/technology/comments/w02ra/athene_interviews_peter_sunde_the_pirate_bay/
p106
sg11
g23
sg24
g25
stRp107
asg29
VAthene Interviews Peter Sunde (The Pirate Bay) about Net Neutrality and more
p108
sS'summary_detail'
p109
g1
(g2
g3
(dp110
g9
S'http://www.reddit.com/.rss?feed=561d220b9383038cb7b3c7a016043e53aff43bf4&user=dunz'
p111
sg11
S'text/html'
p112
sg13
Nsg14
Vsubmitted by <a href="http://www.reddit.com/user/reese015"> reese015 </a> to <a href="http://www.reddit.com/r/technology/"> technology</a> <br /> <a href="http://www.youtube.com/watch?v=xkBfylTh3XY">[link]</a> <a href="http://www.reddit.com/r/technology/comments/w02ra/athene_interviews_peter_sunde_the_pirate_bay/">[227 comments]</a>
p113
stRp114
sg66
g113
sg67
I00
sS'title_detail'
p115
g1
(g2
g3
(dp116
g9
S'http://www.reddit.com/.rss?feed=561d220b9383038cb7b3c7a016043e53aff43bf4&user=dunz'
p117
sg11
S'text/plain'
p118
sg13
Nsg14
g108
stRp119
sg30
g106
sg73
(lp120
g75
aV*
asg76
Vhttp://www.reddit.com/r/technology/comments/w02ra/athene_interviews_peter_sunde_the_pirate_bay/
p121
stRp122
ag1
(g2
g3
(dp123
g50
VTue, 03 Jul 2012 15:42:30 +0000
p124
sg52
g53
((I2012
I7
I3
I15
I42
I30
I1
I185
I0
t(dtRp125
sg18
(lp126
g1
(g2
g3
(dp127
g21
Vhttp://www.reddit.com/r/LifeProTips/comments/vzdsm/chrome_and_firefox_quick_search/
p128
sg11
g23
sg24
g25
stRp129
asg29
VChrome and Firefox Quick Search
p130
sS'summary_detail'
p131
g1
(g2
g3
(dp132
g9
S'http://www.reddit.com/.rss?feed=561d220b9383038cb7b3c7a016043e53aff43bf4&user=dunz'
p133
sg11
S'text/html'
p134
sg13
Nsg14
V<table> <tr><td> <a href="http://www.reddit.com/r/LifeProTips/comments/vzdsm/chrome_and_firefox_quick_search/"><img src="http://b.thumbs.redditmedia.com/eUiswbp77xw9otTa.jpg" alt="Chrome and Firefox Quick Search" title="Chrome and Firefox Quick Search" /></a> </td><td> submitted by <a href="http://www.reddit.com/user/scottocs"> scottocs </a> to <a href="http://www.reddit.com/r/LifeProTips/"> LifeProTips</a> <br /> <a href="http://i.imgur.com/Y960C.png">[link]</a> <a href="http://www.reddit.com/r/LifeProTips/comments/vzdsm/chrome_and_firefox_quick_search/">[264 comments]</a> </td></tr></table>
p135
stRp136
sS'media_thumbnail'
p137
V
sg66
g135
sg67
I00
sS'title_detail'
p138
g1
(g2
g3
(dp139
g9
S'http://www.reddit.com/.rss?feed=561d220b9383038cb7b3c7a016043e53aff43bf4&user=dunz'
p140
sg11
S'text/plain'
p141
sg13
Nsg14
g130
stRp142
sg30
g128
sg73
(lp143
g75
aV*
asg76
Vhttp://www.reddit.com/r/LifeProTips/comments/vzdsm/chrome_and_firefox_quick_search/
p144
stRp145
ag1
(g2
g3
(dp146
g50
VTue, 03 Jul 2012 20:47:55 +0000
p147
sg52
g53
((I2012
I7
I3
I20
I47
I55
I1
I185
I0
t(dtRp148
sg18
(lp149
g1
(g2
g3
(dp150
g21
Vhttp://www.reddit.com/r/DIY/comments/vzx2g/love_your_dogs_not_as_much_as_my_sister_does_diy/
p151
sg11
g23
sg24
g25
stRp152
asg29
VLove your dogs? Not as much as my sister does!! DIY doggy ramp with motion light!
p153
sS'summary_detail'
p154
g1
(g2
g3
(dp155
g9
S'http://www.reddit.com/.rss?feed=561d220b9383038cb7b3c7a016043e53aff43bf4&user=dunz'
p156
sg11
S'text/html'
p157
sg13
Nsg14
Vsubmitted by <a href="http://www.reddit.com/user/leadwateocean"> leadwateocean </a> to <a href="http://www.reddit.com/r/DIY/"> DIY</a> <br /> <a href="http://imgur.com/a/c0Vnm">[link]</a> <a href="http://www.reddit.com/r/DIY/comments/vzx2g/love_your_dogs_not_as_much_as_my_sister_does_diy/">[101 comments]</a>
p158
stRp159
sg66
g158
sg67
I00
sS'title_detail'
p160
g1
(g2
g3
(dp161
g9
S'http://www.reddit.com/.rss?feed=561d220b9383038cb7b3c7a016043e53aff43bf4&user=dunz'
p162
sg11
S'text/plain'
p163
sg13
Nsg14
g153
stRp164
sg30
g151
sg73
(lp165
g75
aV*
asg76
Vhttp://www.reddit.com/r/DIY/comments/vzx2g/love_your_dogs_not_as_much_as_my_sister_does_diy/
p166
stRp167
ag1
(g2
g3
(dp168
g50
VTue, 03 Jul 2012 19:02:51 +0000
p169
sg52
g53
((I2012
I7
I3
I19
I2
I51
I1
I185
I0
t(dtRp170
sg18
(lp171
g1
(g2
g3
(dp172
g21
Vhttp://www.reddit.com/r/humor/comments/vzqd5/new_prius_helps_environment_by_killing_its_owner/
p173
sg11
g23
sg24
g25
stRp174
asg29
VNew Prius Helps Environment By Killing Its Owner
p175
sS'summary_detail'
p176
g1
(g2
g3
(dp177
g9
S'http://www.reddit.com/.rss?feed=561d220b9383038cb7b3c7a016043e53aff43bf4&user=dunz'
p178
sg11
S'text/html'
p179
sg13
Nsg14
Vsubmitted by <a href="http://www.reddit.com/user/fstorino"> fstorino </a> to <a href="http://www.reddit.com/r/humor/"> humor</a> <br /> <a href="http://www.theonion.com/video/new-prius-helps-environment-by-killing-its-owner,28675/">[link]</a> <a href="http://www.reddit.com/r/humor/comments/vzqd5/new_prius_helps_environment_by_killing_its_owner/">[35 comments]</a>
p180
stRp181
sg66
g180
sg67
I00
sS'title_detail'
p182
g1
(g2
g3
(dp183
g9
S'http://www.reddit.com/.rss?feed=561d220b9383038cb7b3c7a016043e53aff43bf4&user=dunz'
p184
sg11
S'text/plain'
p185
sg13
Nsg14
g175
stRp186
sg30
g173
sg73
(lp187
g75
aV*
asg76
Vhttp://www.reddit.com/r/humor/comments/vzqd5/new_prius_helps_environment_by_killing_its_owner/
p188
stRp189
ag1
(g2
g3
(dp190
g50
VTue, 03 Jul 2012 20:25:10 +0000
p191
sg52
g53
((I2012
I7
I3
I20
I25
I10
I1
I185
I0
t(dtRp192
sg18
(lp193
g1
(g2
g3
(dp194
g21
Vhttp://www.reddit.com/r/linux/comments/vzvla/linux_box_crashed_after_being_up_for_136_years/
p195
sg11
g23
sg24
g25
stRp196
asg29
VLinux box crashed after being up for 136 years.
p197
sS'summary_detail'
p198
g1
(g2
g3
(dp199
g9
S'http://www.reddit.com/.rss?feed=561d220b9383038cb7b3c7a016043e53aff43bf4&user=dunz'
p200
sg11
S'text/html'
p201
sg13
Nsg14
Vsubmitted by <a href="http://www.reddit.com/user/adroc"> adroc </a> to <a href="http://www.reddit.com/r/linux/"> linux</a> <br /> <a href="http://i.imgur.com/pxKbi.jpg">[link]</a> <a href="http://www.reddit.com/r/linux/comments/vzvla/linux_box_crashed_after_being_up_for_136_years/">[82 comments]</a>
p202
stRp203
sg66
g202
sg67
I00
sS'title_detail'
p204
g1
(g2
g3
(dp205
g9
S'http://www.reddit.com/.rss?feed=561d220b9383038cb7b3c7a016043e53aff43bf4&user=dunz'
p206
sg11
S'text/plain'
p207
sg13
Nsg14
g197
stRp208
sg30
g195
sg73
(lp209
g75
aV*
asg76
Vhttp://www.reddit.com/r/linux/comments/vzvla/linux_box_crashed_after_being_up_for_136_years/
p210
stRp211
ag1
(g2
g3
(dp212
g50
VTue, 03 Jul 2012 22:47:46 +0000
p213
sg52
g53
((I2012
I7
I3
I22
I47
I46
I1
I185
I0
t(dtRp214
sg18
(lp215
g1
(g2
g3
(dp216
g21
Vhttp://www.reddit.com/r/Pareidolia/comments/w0458/meet_the_coolest_italian_eggplant_ever/
p217
sg11
g23
sg24
g25
stRp218
asg29
VMeet the coolest Italian eggplant ever!
p219
sS'summary_detail'
p220
g1
(g2
g3
(dp221
g9
S'http://www.reddit.com/.rss?feed=561d220b9383038cb7b3c7a016043e53aff43bf4&user=dunz'
p222
sg11
S'text/html'
p223
sg13
Nsg14
V<table> <tr><td> <a href="http://www.reddit.com/r/Pareidolia/comments/w0458/meet_the_coolest_italian_eggplant_ever/"><img src="http://e.thumbs.redditmedia.com/lWfHrQkw_ACoa0VF.jpg" alt="Meet the coolest Italian eggplant ever!" title="Meet the coolest Italian eggplant ever!" /></a> </td><td> submitted by <a href="http://www.reddit.com/user/italianjob17"> italianjob17 </a> to <a href="http://www.reddit.com/r/Pareidolia/"> Pareidolia</a> <br /> <a href="http://i.imgur.com/bSdoR.jpg">[link]</a> <a href="http://www.reddit.com/r/Pareidolia/comments/w0458/meet_the_coolest_italian_eggplant_ever/">[11 comments]</a> </td></tr></table>
p224
stRp225
sS'media_thumbnail'
p226
V
sg66
g224
sg67
I00
sS'title_detail'
p227
g1
(g2
g3
(dp228
g9
S'http://www.reddit.com/.rss?feed=561d220b9383038cb7b3c7a016043e53aff43bf4&user=dunz'
p229
sg11
S'text/plain'
p230
sg13
Nsg14
g219
stRp231
sg30
g217
sg73
(lp232
g75
aV*
asg76
Vhttp://www.reddit.com/r/Pareidolia/comments/w0458/meet_the_coolest_italian_eggplant_ever/
p233
stRp234
ag1
(g2
g3
(dp235
g50
VTue, 03 Jul 2012 14:58:46 +0000
p236
sg52
g53
((I2012
I7
I3
I14
I58
I46
I1
I185
I0
t(dtRp237
sg18
(lp238
g1
(g2
g3
(dp239
g21
Vhttp://www.reddit.com/r/iiiiiiitttttttttttt/comments/vzbbf/another_l1_tech/
p240
sg11
g23
sg24
g25
stRp241
asg29
VAnother L1 Tech...
p242
sS'summary_detail'
p243
g1
(g2
g3
(dp244
g9
S'http://www.reddit.com/.rss?feed=561d220b9383038cb7b3c7a016043e53aff43bf4&user=dunz'
p245
sg11
S'text/html'
p246
sg13
Nsg14
V<table> <tr><td> <a href="http://www.reddit.com/r/iiiiiiitttttttttttt/comments/vzbbf/another_l1_tech/"><img src="http://c.thumbs.redditmedia.com/4KnRiAYOqKwFJRjz.jpg" alt="Another L1 Tech..." title="Another L1 Tech..." /></a> </td><td> submitted by <a href="http://www.reddit.com/user/I_am_not_angry"> I_am_not_angry </a> to <a href="http://www.reddit.com/r/iiiiiiitttttttttttt/"> iiiiiiitttttttttttt</a> <br /> <a href="http://i.imgur.com/QYLUv.jpg">[link]</a> <a href="http://www.reddit.com/r/iiiiiiitttttttttttt/comments/vzbbf/another_l1_tech/">[87 comments]</a> </td></tr></table>
p247
stRp248
sS'media_thumbnail'
p249
V
sg66
g247
sg67
I00
sS'title_detail'
p250
g1
(g2
g3
(dp251
g9
S'http://www.reddit.com/.rss?feed=561d220b9383038cb7b3c7a016043e53aff43bf4&user=dunz'
p252
sg11
S'text/plain'
p253
sg13
Nsg14
g242
stRp254
sg30
g240
sg73
(lp255
g75
aV*
asg76
Vhttp://www.reddit.com/r/iiiiiiitttttttttttt/comments/vzbbf/another_l1_tech/
p256
stRp257
ag1
(g2
g3
(dp258
g50
VWed, 04 Jul 2012 01:28:32 +0000
p259
sg52
g53
((I2012
I7
I4
I1
I28
I32
I2
I186
I0
t(dtRp260
sg18
(lp261
g1
(g2
g3
(dp262
g21
Vhttp://www.reddit.com/r/crafts/comments/w0cov/redid_some_stuff_i_found_while_dumpster_diving/
p263
sg11
g23
sg24
g25
stRp264
asg29
VRedid some stuff I found while dumpster diving.
p265
sS'summary_detail'
p266
g1
(g2
g3
(dp267
g9
S'http://www.reddit.com/.rss?feed=561d220b9383038cb7b3c7a016043e53aff43bf4&user=dunz'
p268
sg11
S'text/html'
p269
sg13
Nsg14
V<table> <tr><td> <a href="http://www.reddit.com/r/crafts/comments/w0cov/redid_some_stuff_i_found_while_dumpster_diving/"><img src="http://c.thumbs.redditmedia.com/VKxYv_DWOqh42AoV.jpg" alt="Redid some stuff I found while dumpster diving." title="Redid some stuff I found while dumpster diving." /></a> </td><td> submitted by <a href="http://www.reddit.com/user/Madarcon"> Madarcon </a> to <a href="http://www.reddit.com/r/crafts/"> crafts</a> <br /> <a href="http://i.imgur.com/UioQ0.jpg">[link]</a> <a href="http://www.reddit.com/r/crafts/comments/w0cov/redid_some_stuff_i_found_while_dumpster_diving/">[4 comments]</a> </td></tr></table>
p270
stRp271
sS'media_thumbnail'
p272
V
sg66
g270
sg67
I00
sS'title_detail'
p273
g1
(g2
g3
(dp274
g9
S'http://www.reddit.com/.rss?feed=561d220b9383038cb7b3c7a016043e53aff43bf4&user=dunz'
p275
sg11
S'text/plain'
p276
sg13
Nsg14
g265
stRp277
sg30
g263
sg73
(lp278
g75
aV*
asg76
Vhttp://www.reddit.com/r/crafts/comments/w0cov/redid_some_stuff_i_found_while_dumpster_diving/
p279
stRp280
ag1
(g2
g3
(dp281
g50
VTue, 03 Jul 2012 14:15:11 +0000
p282
sg52
g53
((I2012
I7
I3
I14
I15
I11
I1
I185
I0
t(dtRp283
sg18
(lp284
g1
(g2
g3
(dp285
g21
Vhttp://www.reddit.com/r/explainlikeimfive/comments/vz8z3/eli5_stephen_hawkings_major_contributions_to/
p286
sg11
g23
sg24
g25
stRp287
asg29
VELI5 Stephen Hawking's major contributions to science.
p288
sS'summary_detail'
p289
g1
(g2
g3
(dp290
g9
S'http://www.reddit.com/.rss?feed=561d220b9383038cb7b3c7a016043e53aff43bf4&user=dunz'
p291
sg11
S'text/html'
p292
sg13
Nsg14
Vsubmitted by <a href="http://www.reddit.com/user/floydiannyc"> floydiannyc </a> to <a href="http://www.reddit.com/r/explainlikeimfive/"> explainlikeimfive</a> <br /> <a href="http://www.reddit.com/r/explainlikeimfive/comments/vz8z3/eli5_stephen_hawkings_major_contributions_to/">[link]</a> <a href="http://www.reddit.com/r/explainlikeimfive/comments/vz8z3/eli5_stephen_hawkings_major_contributions_to/">[203 comments]</a>
p293
stRp294
sg66
g293
sg67
I00
sS'title_detail'
p295
g1
(g2
g3
(dp296
g9
S'http://www.reddit.com/.rss?feed=561d220b9383038cb7b3c7a016043e53aff43bf4&user=dunz'
p297
sg11
S'text/plain'
p298
sg13
Nsg14
g288
stRp299
sg30
g286
sg73
(lp300
g75
aV*
asg76
Vhttp://www.reddit.com/r/explainlikeimfive/comments/vz8z3/eli5_stephen_hawkings_major_contributions_to/
p301
stRp302
ag1
(g2
g3
(dp303
g50
VTue, 03 Jul 2012 19:23:49 +0000
p304
sg52
g53
((I2012
I7
I3
I19
I23
I49
I1
I185
I0
t(dtRp305
sg18
(lp306
g1
(g2
g3
(dp307
g21
Vhttp://www.reddit.com/r/YouShouldKnow/comments/vzrqr/ysk_how_legally_you_can_blow_stuff_up_tomorrow/
p308
sg11
g23
sg24
g25
stRp309
asg29
VYSK: How Legally You Can Blow Stuff Up Tomorrow (State Fireworks Laws)
p310
sS'summary_detail'
p311
g1
(g2
g3
(dp312
g9
S'http://www.reddit.com/.rss?feed=561d220b9383038cb7b3c7a016043e53aff43bf4&user=dunz'
p313
sg11
S'text/html'
p314
sg13
Nsg14
Vsubmitted by <a href="http://www.reddit.com/user/Hopulus"> Hopulus </a> to <a href="http://www.reddit.com/r/YouShouldKnow/"> YouShouldKnow</a> <br /> <a href="http://gizmodo.com/5923151/the-fireworks-laws-of-every-state">[link]</a> <a href="http://www.reddit.com/r/YouShouldKnow/comments/vzrqr/ysk_how_legally_you_can_blow_stuff_up_tomorrow/">[49 comments]</a>
p315
stRp316
sg66
g315
sg67
I00
sS'title_detail'
p317
g1
(g2
g3
(dp318
g9
S'http://www.reddit.com/.rss?feed=561d220b9383038cb7b3c7a016043e53aff43bf4&user=dunz'
p319
sg11
S'text/plain'
p320
sg13
Nsg14
g310
stRp321
sg30
g308
sg73
(lp322
g75
aV*
asg76
Vhttp://www.reddit.com/r/YouShouldKnow/comments/vzrqr/ysk_how_legally_you_can_blow_stuff_up_tomorrow/
p323
stRp324
ag1
(g2
g3
(dp325
g50
VTue, 03 Jul 2012 21:45:51 +0000
p326
sg52
g53
((I2012
I7
I3
I21
I45
I51
I1
I185
I0
t(dtRp327
sg18
(lp328
g1
(g2
g3
(dp329
g21
Vhttp://www.reddit.com/r/Coffee/comments/w00lz/coffee_break_how_about_a_delicious_espresso_from/
p330
sg11
g23
sg24
g25
stRp331
asg29
VCoffee break : How about a delicious espresso from this classic Elektra hand pumped maker?
p332
sS'summary_detail'
p333
g1
(g2
g3
(dp334
g9
S'http://www.reddit.com/.rss?feed=561d220b9383038cb7b3c7a016043e53aff43bf4&user=dunz'
p335
sg11
S'text/html'
p336
sg13
Nsg14
Vsubmitted by <a href="http://www.reddit.com/user/beef-supreme"> beef-supreme </a> to <a href="http://www.reddit.com/r/Coffee/"> Coffee</a> <br /> <a href="http://i.imgur.com/8A71f.jpg">[link]</a> <a href="http://www.reddit.com/r/Coffee/comments/w00lz/coffee_break_how_about_a_delicious_espresso_from/">[16 comments]</a>
p337
stRp338
sg66
g337
sg67
I00
sS'title_detail'
p339
g1
(g2
g3
(dp340
g9
S'http://www.reddit.com/.rss?feed=561d220b9383038cb7b3c7a016043e53aff43bf4&user=dunz'
p341
sg11
S'text/plain'
p342
sg13
Nsg14
g332
stRp343
sg30
g330
sg73
(lp344
g75
aV*
asg76
Vhttp://www.reddit.com/r/Coffee/comments/w00lz/coffee_break_how_about_a_delicious_espresso_from/
p345
stRp346
ag1
(g2
g3
(dp347
g50
VTue, 03 Jul 2012 22:57:30 +0000
p348
sg52
g53
((I2012
I7
I3
I22
I57
I30
I1
I185
I0
t(dtRp349
sg18
(lp350
g1
(g2
g3
(dp351
g21
Vhttp://www.reddit.com/r/sysadmin/comments/w04o4/i_do_server_maintenance_for_a_company_once_a_week/
p352
sg11
g23
sg24
g25
stRp353
asg29
VI do server maintenance for a company once a week, just saw this.
p354
sS'summary_detail'
p355
g1
(g2
g3
(dp356
g9
S'http://www.reddit.com/.rss?feed=561d220b9383038cb7b3c7a016043e53aff43bf4&user=dunz'
p357
sg11
S'text/html'
p358
sg13
Nsg14
V<table> <tr><td> <a href="http://www.reddit.com/r/sysadmin/comments/w04o4/i_do_server_maintenance_for_a_company_once_a_week/"><img src="http://a.thumbs.redditmedia.com/07SnLLVV7aJ4zTlx.jpg" alt="I do server maintenance for a company once a week, just saw this. " title="I do server maintenance for a company once a week, just saw this. " /></a> </td><td> submitted by <a href="http://www.reddit.com/user/remotefixonline"> remotefixonline </a> to <a href="http://www.reddit.com/r/sysadmin/"> sysadmin</a> <br /> <a href="http://i.imgur.com/eWE0e.png">[link]</a> <a href="http://www.reddit.com/r/sysadmin/comments/w04o4/i_do_server_maintenance_for_a_company_once_a_week/">[38 comments]</a> </td></tr></table>
p359
stRp360
sS'media_thumbnail'
p361
V
sg66
g359
sg67
I00
sS'title_detail'
p362
g1
(g2
g3
(dp363
g9
S'http://www.reddit.com/.rss?feed=561d220b9383038cb7b3c7a016043e53aff43bf4&user=dunz'
p364
sg11
S'text/plain'
p365
sg13
Nsg14
g354
stRp366
sg30
g352
sg73
(lp367
g75
aV*
asg76
Vhttp://www.reddit.com/r/sysadmin/comments/w04o4/i_do_server_maintenance_for_a_company_once_a_week/
p368
stRp369
ag1
(g2
g3
(dp370
g50
VTue, 03 Jul 2012 16:30:36 +0000
p371
sg52
g53
((I2012
I7
I3
I16
I30
I36
I1
I185
I0
t(dtRp372
sg18
(lp373
g1
(g2
g3
(dp374
g21
Vhttp://www.reddit.com/r/WikiLeaks/comments/vzglh/army_admits_to_investigating_bradley_manning/
p375
sg11
g23
sg24
g25
stRp376
asg29
VArmy admits to investigating Bradley Manning supporters
p377
sS'summary_detail'
p378
g1
(g2
g3
(dp379
g9
S'http://www.reddit.com/.rss?feed=561d220b9383038cb7b3c7a016043e53aff43bf4&user=dunz'
p380
sg11
S'text/html'
p381
sg13
Nsg14
V<table> <tr><td> <a href="http://www.reddit.com/r/WikiLeaks/comments/vzglh/army_admits_to_investigating_bradley_manning/"><img src="http://a.thumbs.redditmedia.com/Y7FYMUc_TxvxYQNB.jpg" alt="Army admits to investigating Bradley Manning supporters" title="Army admits to investigating Bradley Manning supporters" /></a> </td><td> submitted by <a href="http://www.reddit.com/user/maxwellhill"> maxwellhill </a> to <a href="http://www.reddit.com/r/WikiLeaks/"> WikiLeaks</a> <br /> <a href="https://rt.com/usa/news/army-bradley-manning-accused-227/">[link]</a> <a href="http://www.reddit.com/r/WikiLeaks/comments/vzglh/army_admits_to_investigating_bradley_manning/">[1 comment]</a> </td></tr></table>
p382
stRp383
sS'media_thumbnail'
p384
V
sg66
g382
sg67
I00
sS'title_detail'
p385
g1
(g2
g3
(dp386
g9
S'http://www.reddit.com/.rss?feed=561d220b9383038cb7b3c7a016043e53aff43bf4&user=dunz'
p387
sg11
S'text/plain'
p388
sg13
Nsg14
g377
stRp389
sg30
g375
sg73
(lp390
g75
aV*
asg76
Vhttp://www.reddit.com/r/WikiLeaks/comments/vzglh/army_admits_to_investigating_bradley_manning/
p391
stRp392
ag1
(g2
g3
(dp393
g50
VTue, 03 Jul 2012 16:06:36 +0000
p394
sg52
g53
((I2012
I7
I3
I16
I6
I36
I1
I185
I0
t(dtRp395
sg18
(lp396
g1
(g2
g3
(dp397
g21
Vhttp://www.reddit.com/r/ProjectReddit/comments/vzf6a/sharpen_your_knives_upkeep_your_tires_maintain/
p398
sg11
g23
sg24
g25
stRp399
asg29
VSharpen your knives, upkeep your tires, maintain things in your life and organize your wires. Just a week of maintenance and upkeep to keep your things going longer than nokeep.
p400
sS'summary_detail'
p401
g1
(g2
g3
(dp402
g9
S'http://www.reddit.com/.rss?feed=561d220b9383038cb7b3c7a016043e53aff43bf4&user=dunz'
p403
sg11
S'text/html'
p404
sg13
Nsg14
V<!-- SC_OFF --><div class="md"><p>bonus fact, fireflies that flicker their lights at different intervals are different types and they are looking for a light pattern that matches their own so they can mate with their own type.</p> </div><!-- SC_ON --> submitted by <a href="http://www.reddit.com/user/Pravusmentis"> Pravusmentis </a> to <a href="http://www.reddit.com/r/ProjectReddit/"> ProjectReddit</a> <br /> <a href="http://www.reddit.com/r/ProjectReddit/comments/vzf6a/sharpen_your_knives_upkeep_your_tires_maintain/">[link]</a> <a href="http://www.reddit.com/r/ProjectReddit/comments/vzf6a/sharpen_your_knives_upkeep_your_tires_maintain/">[11 comments]</a>
p405
stRp406
sg66
g405
sg67
I00
sS'title_detail'
p407
g1
(g2
g3
(dp408
g9
S'http://www.reddit.com/.rss?feed=561d220b9383038cb7b3c7a016043e53aff43bf4&user=dunz'
p409
sg11
S'text/plain'
p410
sg13
Nsg14
g400
stRp411
sg30
g398
sg73
(lp412
g75
aV*
asg76
Vhttp://www.reddit.com/r/ProjectReddit/comments/vzf6a/sharpen_your_knives_upkeep_your_tires_maintain/
p413
stRp414
ag1
(g2
g3
(dp415
g50
VTue, 03 Jul 2012 21:25:48 +0000
p416
sg52
g53
((I2012
I7
I3
I21
I25
I48
I1
I185
I0
t(dtRp417
sg18
(lp418
g1
(g2
g3
(dp419
g21
Vhttp://www.reddit.com/r/electronics/comments/vzzem/bucket_amplifier/
p420
sg11
g23
sg24
g25
stRp421
asg29
VBucket Amplifier
p422
sS'summary_detail'
p423
g1
(g2
g3
(dp424
g9
S'http://www.reddit.com/.rss?feed=561d220b9383038cb7b3c7a016043e53aff43bf4&user=dunz'
p425
sg11
S'text/html'
p426
sg13
Nsg14
V<table> <tr><td> <a href="http://www.reddit.com/r/electronics/comments/vzzem/bucket_amplifier/"><img src="http://a.thumbs.redditmedia.com/lV8BBENPSQbHD4Y6.jpg" alt="Bucket Amplifier" title="Bucket Amplifier" /></a> </td><td> submitted by <a href="http://www.reddit.com/user/Sillern"> Sillern </a> to <a href="http://www.reddit.com/r/electronics/"> electronics</a> <br /> <a href="http://imgur.com/a/4x4pb">[link]</a> <a href="http://www.reddit.com/r/electronics/comments/vzzem/bucket_amplifier/">[21 comments]</a> </td></tr></table>
p427
stRp428
sS'media_thumbnail'
p429
V
sg66
g427
sg67
I00
sS'title_detail'
p430
g1
(g2
g3
(dp431
g9
S'http://www.reddit.com/.rss?feed=561d220b9383038cb7b3c7a016043e53aff43bf4&user=dunz'
p432
sg11
S'text/plain'
p433
sg13
Nsg14
g422
stRp434
sg30
g420
sg73
(lp435
g75
aV*
asg76
Vhttp://www.reddit.com/r/electronics/comments/vzzem/bucket_amplifier/
p436
stRp437
ag1
(g2
g3
(dp438
g50
VWed, 04 Jul 2012 00:27:57 +0000
p439
sg52
g53
((I2012
I7
I4
I0
I27
I57
I2
I186
I0
t(dtRp440
sg18
(lp441
g1
(g2
g3
(dp442
g21
Vhttp://www.reddit.com/r/collapse/comments/w09i5/ron_paul_warns_americans_of_coming_economic/
p443
sg11
g23
sg24
g25
stRp444
asg29
VRon Paul warns Americans of coming economic collapse and possible martial law - Published on Apr 23, 2012
p445
sS'summary_detail'
p446
g1
(g2
g3
(dp447
g9
S'http://www.reddit.com/.rss?feed=561d220b9383038cb7b3c7a016043e53aff43bf4&user=dunz'
p448
sg11
S'text/html'
p449
sg13
Nsg14
Vsubmitted by <a href="http://www.reddit.com/user/dabear88"> dabear88 </a> to <a href="http://www.reddit.com/r/collapse/"> collapse</a> <br /> <a href="http://youtu.be/DKn3IQCSzYQ">[link]</a> <a href="http://www.reddit.com/r/collapse/comments/w09i5/ron_paul_warns_americans_of_coming_economic/">[2 comments]</a>
p450
stRp451
sg66
g450
sg67
I00
sS'title_detail'
p452
g1
(g2
g3
(dp453
g9
S'http://www.reddit.com/.rss?feed=561d220b9383038cb7b3c7a016043e53aff43bf4&user=dunz'
p454
sg11
S'text/plain'
p455
sg13
Nsg14
g445
stRp456
sg30
g443
sg73
(lp457
Vreddit: the front page of the internet
p458
aV*
asg76
Vhttp://www.reddit.com/r/collapse/comments/w09i5/ron_paul_warns_americans_of_coming_economic/
p459
stRp460
ag1
(g2
g3
(dp461
g50
VTue, 03 Jul 2012 23:01:09 +0000
p462
sg52
g53
((I2012
I7
I3
I23
I1
I9
I1
I185
I0
t(dtRp463
sg18
(lp464
g1
(g2
g3
(dp465
g21
Vhttp://www.reddit.com/r/unixporn/comments/w04vp/gentooawesomewm_new_colors_new_fun/
p466
sg11
g23
sg24
g25
stRp467
asg29
V[Gentoo][AwesomeWM] new colors / new fun
p468
sS'summary_detail'
p469
g1
(g2
g3
(dp470
g9
S'http://www.reddit.com/.rss?feed=561d220b9383038cb7b3c7a016043e53aff43bf4&user=dunz'
p471
sg11
S'text/html'
p472
sg13
Nsg14
V<table> <tr><td> <a href="http://www.reddit.com/r/unixporn/comments/w04vp/gentooawesomewm_new_colors_new_fun/"><img src="http://b.thumbs.redditmedia.com/-2g4BhPved3ZruUI.jpg" alt="[Gentoo][AwesomeWM] new colors / new fun" title="[Gentoo][AwesomeWM] new colors / new fun" /></a> </td><td> submitted by <a href="http://www.reddit.com/user/quantumfunk"> quantumfunk </a> to <a href="http://www.reddit.com/r/unixporn/"> unixporn</a> <br /> <a href="http://i.imgur.com/9axnB.png">[link]</a> <a href="http://www.reddit.com/r/unixporn/comments/w04vp/gentooawesomewm_new_colors_new_fun/">[4 comments]</a> </td></tr></table>
p473
stRp474
sS'media_thumbnail'
p475
V
sg66
g473
sg67
I00
sS'title_detail'
p476
g1
(g2
g3
(dp477
g9
S'http://www.reddit.com/.rss?feed=561d220b9383038cb7b3c7a016043e53aff43bf4&user=dunz'
p478
sg11
S'text/plain'
p479
sg13
Nsg14
g468
stRp480
sg30
g466
sg73
(lp481
g75
aV*
asg76
Vhttp://www.reddit.com/r/unixporn/comments/w04vp/gentooawesomewm_new_colors_new_fun/
p482
stRp483
ag1
(g2
g3
(dp484
g50
VTue, 03 Jul 2012 19:09:39 +0000
p485
sg52
g53
((I2012
I7
I3
I19
I9
I39
I1
I185
I0
t(dtRp486
sg18
(lp487
g1
(g2
g3
(dp488
g21
Vhttp://www.reddit.com/r/Python/comments/vzqte/javaism_exceptions_and_logging_part_1/
p489
sg11
g23
sg24
g25
stRp490
asg29
VJavaism, Exceptions, and Logging: Part 1
p491
sS'summary_detail'
p492
g1
(g2
g3
(dp493
g9
S'http://www.reddit.com/.rss?feed=561d220b9383038cb7b3c7a016043e53aff43bf4&user=dunz'
p494
sg11
S'text/html'
p495
sg13
Nsg14
Vsubmitted by <a href="http://www.reddit.com/user/gthank"> gthank </a> to <a href="http://www.reddit.com/r/Python/"> Python</a> <br /> <a href="http://tomerfiliba.com/blog/Javaism/">[link]</a> <a href="http://www.reddit.com/r/Python/comments/vzqte/javaism_exceptions_and_logging_part_1/">[1 comment]</a>
p496
stRp497
sg66
g496
sg67
I00
sS'title_detail'
p498
g1
(g2
g3
(dp499
g9
S'http://www.reddit.com/.rss?feed=561d220b9383038cb7b3c7a016043e53aff43bf4&user=dunz'
p500
sg11
S'text/plain'
p501
sg13
Nsg14
g491
stRp502
sg30
g489
sg73
(lp503
g75
aV*
asg76
Vhttp://www.reddit.com/r/Python/comments/vzqte/javaism_exceptions_and_logging_part_1/
p504
stRp505
ag1
(g2
g3
(dp506
g50
VTue, 03 Jul 2012 22:31:53 +0000
p507
sg52
g53
((I2012
I7
I3
I22
I31
I53
I1
I185
I0
t(dtRp508
sg18
(lp509
g1
(g2
g3
(dp510
g21
Vhttp://www.reddit.com/r/arduino/comments/w03a9/say_hello_to_leonardo_my_first_arduino_lost_in/
p511
sg11
g23
sg24
g25
stRp512
asg29
VSay hello to Leonardo, my first Arduino. Lost in mail, then found, quite the perilous 60 miles from the factory to my home.
p513
sS'summary_detail'
p514
g1
(g2
g3
(dp515
g9
S'http://www.reddit.com/.rss?feed=561d220b9383038cb7b3c7a016043e53aff43bf4&user=dunz'
p516
sg11
S'text/html'
p517
sg13
Nsg14
Vsubmitted by <a href="http://www.reddit.com/user/Icovada"> Icovada </a> to <a href="http://www.reddit.com/r/arduino/"> arduino</a> <br /> <a href="http://imgur.com/a/RAKVf">[link]</a> <a href="http://www.reddit.com/r/arduino/comments/w03a9/say_hello_to_leonardo_my_first_arduino_lost_in/">[5 comments]</a>
p518
stRp519
sg66
g518
sg67
I00
sS'title_detail'
p520
g1
(g2
g3
(dp521
g9
S'http://www.reddit.com/.rss?feed=561d220b9383038cb7b3c7a016043e53aff43bf4&user=dunz'
p522
sg11
S'text/plain'
p523
sg13
Nsg14
g513
stRp524
sg30
g511
sg73
(lp525
g75
aV*
asg76
Vhttp://www.reddit.com/r/arduino/comments/w03a9/say_hello_to_leonardo_my_first_arduino_lost_in/
p526
stRp527
ag1
(g2
g3
(dp528
g50
VWed, 04 Jul 2012 00:10:54 +0000
p529
sg52
g53
((I2012
I7
I4
I0
I10
I54
I2
I186
I0
t(dtRp530
sg18
(lp531
g1
(g2
g3
(dp532
g21
Vhttp://www.reddit.com/r/printSF/comments/w08mp/any_suggestions_for_good_scifi_novels_about/
p533
sg11
g23
sg24
g25
stRp534
asg29
VAny suggestions for good Sci-Fi novels about ancient, Deus Ex-type conspiracies?
p535
sS'summary_detail'
p536
g1
(g2
g3
(dp537
g9
S'http://www.reddit.com/.rss?feed=561d220b9383038cb7b3c7a016043e53aff43bf4&user=dunz'
p538
sg11
S'text/html'
p539
sg13
Nsg14
V<!-- SC_OFF --><div class="md"><p>I want something akin to an Assassin's Creed level of conspiracy, some group from centuries ago slowly coming to power and running the world in a modern or futuristic era and some lone guy uncovering all these secrets.</p> </div><!-- SC_ON --> submitted by <a href="http://www.reddit.com/user/Bladethegreat"> Bladethegreat </a> to <a href="http://www.reddit.com/r/printSF/"> printSF</a> <br /> <a href="http://www.reddit.com/r/printSF/comments/w08mp/any_suggestions_for_good_scifi_novels_about/">[link]</a> <a href="http://www.reddit.com/r/printSF/comments/w08mp/any_suggestions_for_good_scifi_novels_about/">[8 comments]</a>
p540
stRp541
sg66
g540
sg67
I00
sS'title_detail'
p542
g1
(g2
g3
(dp543
g9
S'http://www.reddit.com/.rss?feed=561d220b9383038cb7b3c7a016043e53aff43bf4&user=dunz'
p544
sg11
S'text/plain'
p545
sg13
Nsg14
g535
stRp546
sg30
g533
sg73
(lp547
g75
aV*
asg76
Vhttp://www.reddit.com/r/printSF/comments/w08mp/any_suggestions_for_good_scifi_novels_about/
p548
stRp549
ag1
(g2
g3
(dp550
g50
VTue, 03 Jul 2012 19:38:27 +0000
p551
sg52
g53
((I2012
I7
I3
I19
I38
I27
I1
I185
I0
t(dtRp552
sg18
(lp553
g1
(g2
g3
(dp554
g21
Vhttp://www.reddit.com/r/woodworking/comments/vzsoe/planter_boxes_for_the_gfs_bday/
p555
sg11
g23
sg24
g25
stRp556
asg29
VPlanter boxes for the GF's B-day
p557
sS'summary_detail'
p558
g1
(g2
g3
(dp559
g9
S'http://www.reddit.com/.rss?feed=561d220b9383038cb7b3c7a016043e53aff43bf4&user=dunz'
p560
sg11
S'text/html'
p561
sg13
Nsg14
V<!-- SC_OFF --><div class="md"><p>First &quot;big&quot; project in our new house. GF wanted some planter boxes for her tomatoes and I just inherited my grandfather's old table saw. Lots of work, but they turned out great. </p> <p>Album:<a href="http://imgur.com/a/E5drb#0">http://imgur.com/a/E5drb#0</a></p> <p>Close-up of the finished planters </p> <p><a href="http://imgur.com/hcwt7">http://imgur.com/hcwt7</a> <a href="http://imgur.com/cEFye">http://imgur.com/cEFye</a></p> </div><!-- SC_ON --> submitted by <a href="http://www.reddit.com/user/pilotpistolpete"> pilotpistolpete </a> to <a href="http://www.reddit.com/r/woodworking/"> woodworking</a> <br /> <a href="http://www.reddit.com/r/woodworking/comments/vzsoe/planter_boxes_for_the_gfs_bday/">[link]</a> <a href="http://www.reddit.com/r/woodworking/comments/vzsoe/planter_boxes_for_the_gfs_bday/">[10 comments]</a>
p562
stRp563
sg66
g562
sg67
I00
sS'title_detail'
p564
g1
(g2
g3
(dp565
g9
S'http://www.reddit.com/.rss?feed=561d220b9383038cb7b3c7a016043e53aff43bf4&user=dunz'
p566
sg11
S'text/plain'
p567
sg13
Nsg14
g557
stRp568
sg30
g555
sg73
(lp569
g75
aV*
asg76
Vhttp://www.reddit.com/r/woodworking/comments/vzsoe/planter_boxes_for_the_gfs_bday/
p570
stRp571
ag1
(g2
g3
(dp572
g50
VTue, 03 Jul 2012 15:39:30 +0000
p573
sg52
g53
((I2012
I7
I3
I15
I39
I30
I1
I185
I0
t(dtRp574
sg18
(lp575
g1
(g2
g3
(dp576
g21
Vhttp://www.reddit.com/r/darknetplan/comments/vzdli/announcing_a_subreddit_for_philadelphia_and_its/
p577
sg11
g23
sg24
g25
stRp578
asg29
VAnnouncing a subreddit for Philadelphia and it's PA and NJ suburbs
p579
sS'summary_detail'
p580
g1
(g2
g3
(dp581
g9
S'http://www.reddit.com/.rss?feed=561d220b9383038cb7b3c7a016043e53aff43bf4&user=dunz'
p582
sg11
S'text/html'
p583
sg13
Nsg14
V<!-- SC_OFF --><div class="md"><p>If you're in the region, please subscribe to <a href="http://www.reddit.com/r/phillymeshnet/">phillymeshnet</a> and share your ideas.</p> </div><!-- SC_ON --> submitted by <a href="http://www.reddit.com/user/pointsource"> pointsource </a> to <a href="http://www.reddit.com/r/darknetplan/"> darknetplan</a> <br /> <a href="http://www.reddit.com/r/darknetplan/comments/vzdli/announcing_a_subreddit_for_philadelphia_and_its/">[link]</a> <a href="http://www.reddit.com/r/darknetplan/comments/vzdli/announcing_a_subreddit_for_philadelphia_and_its/">[10 comments]</a>
p584
stRp585
sg66
g584
sg67
I00
sS'title_detail'
p586
g1
(g2
g3
(dp587
g9
S'http://www.reddit.com/.rss?feed=561d220b9383038cb7b3c7a016043e53aff43bf4&user=dunz'
p588
sg11
S'text/plain'
p589
sg13
Nsg14
g579
stRp590
sg30
g577
sg73
(lp591
g75
aV*
asg76
Vhttp://www.reddit.com/r/darknetplan/comments/vzdli/announcing_a_subreddit_for_philadelphia_and_its/
p592
stRp593
ag1
(g2
g3
(dp594
g50
VWed, 04 Jul 2012 00:17:42 +0000
p595
sg52
g53
((I2012
I7
I4
I0
I17
I42
I2
I186
I0
t(dtRp596
sg18
(lp597
g1
(g2
g3
(dp598
g21
Vhttp://www.reddit.com/r/robotics/comments/w08z5/understanding_our_future_with_robots_abb_frida/
p599
sg11
g23
sg24
g25
stRp600
asg29
VUnderstanding our Future with Robots: ABB Frida and the Bot & Dolly IRIS
p601
sS'summary_detail'
p602
g1
(g2
g3
(dp603
g9
S'http://www.reddit.com/.rss?feed=561d220b9383038cb7b3c7a016043e53aff43bf4&user=dunz'
p604
sg11
S'text/html'
p605
sg13
Nsg14
Vsubmitted by <a href="http://www.reddit.com/user/harbingeralpha"> harbingeralpha </a> to <a href="http://www.reddit.com/r/robotics/"> robotics</a> <br /> <a href="http://unifiedpoptheory.com/understanding-our-future-with-robots-abb-frida-and-the-bot-dolly-iris/">[link]</a> <a href="http://www.reddit.com/r/robotics/comments/w08z5/understanding_our_future_with_robots_abb_frida/">[1 comment]</a>
p606
stRp607
sg66
g606
sg67
I00
sS'title_detail'
p608
g1
(g2
g3
(dp609
g9
S'http://www.reddit.com/.rss?feed=561d220b9383038cb7b3c7a016043e53aff43bf4&user=dunz'
p610
sg11
S'text/plain'
p611
sg13
Nsg14
g601
stRp612
sg30
g599
sg73
(lp613
g75
aV*
asg76
Vhttp://www.reddit.com/r/robotics/comments/w08z5/understanding_our_future_with_robots_abb_frida/
p614
stRp615
ag1
(g2
g3
(dp616
S'summary_detail'
p617
g1
(g2
g3
(dp618
S'base'
p619
S'http://www.reddit.com/.rss?feed=561d220b9383038cb7b3c7a016043e53aff43bf4&user=dunz'
p620
sS'type'
p621
S'text/html'
p622
sS'value'
p623
Vsubmitted by <a href="http://www.reddit.com/user/agent_of_entropy"> agent_of_entropy </a> to <a href="http://www.reddit.com/r/collapse/"> collapse</a> <br /> <a href="http://online.barrons.com/article/SB50001424053111903857104577467200405790354.html?mod=BOL_hps_highlight_top#articleTabs_article%3D0">[link]</a> <a href="http://www.reddit.com/r/collapse/comments/vzou8/the_chinese_economy_is_slowing_and_is_likely_to/">[14 comments]</a>
p624
sS'language'
p625
NstRp626
sS'updated_parsed'
p627
g53
((I2012
I7
I3
I18
I39
I19
I1
I185
I0
t(dtRp628
sS'links'
p629
(lp630
g1
(g2
g3
(dp631
S'href'
p632
Vhttp://www.reddit.com/r/collapse/comments/vzou8/the_chinese_economy_is_slowing_and_is_likely_to/
p633
sg621
S'text/html'
p634
sS'rel'
p635
S'alternate'
p636
stRp637
asS'title'
p638
VThe Chinese economy is slowing and is likely to slow a lot more. Get ready for a hard landing.
p639
sS'updated'
p640
VTue, 03 Jul 2012 18:39:19 +0000
p641
sS'summary'
p642
Vsubmitted by <a href="http://www.reddit.com/user/agent_of_entropy"> agent_of_entropy </a> to <a href="http://www.reddit.com/r/collapse/"> collapse</a> <br /> <a href="http://online.barrons.com/article/SB50001424053111903857104577467200405790354.html?mod=BOL_hps_highlight_top#articleTabs_article\u005c%3D0">[link]</a> <a href="http://www.reddit.com/r/collapse/comments/vzou8/the_chinese_economy_is_slowing_and_is_likely_to/">[14 comments]</a>
p643
sS'guidislink'
p644
I00
sS'title_detail'
p645
g1
(g2
g3
(dp646
g619
S'http://www.reddit.com/.rss?feed=561d220b9383038cb7b3c7a016043e53aff43bf4&user=dunz'
p647
sg621
S'text/plain'
p648
sg623
g639
sg625
NstRp649
sS'link'
p650
g633
sS'canto_state'
p651
(lp652
g75
aV*
asS'id'
p653
Vhttp://www.reddit.com/r/collapse/comments/vzou8/the_chinese_economy_is_slowing_and_is_likely_to/
p654
stRp655
ag1
(g2
g3
(dp656
S'summary_detail'
p657
g1
(g2
g3
(dp658
S'base'
p659
S'http://www.reddit.com/.rss?feed=561d220b9383038cb7b3c7a016043e53aff43bf4&user=dunz'
p660
sS'type'
p661
S'text/html'
p662
sS'language'
p663
NsS'value'
p664
V<table> <tr><td> <a href="http://www.reddit.com/r/space/comments/vzms1/thought_rspace_would_find_this_interesting_my/"><img src="http://f.thumbs.redditmedia.com/a4foDjUG2D66EhIM.jpg" alt="Thought /r/space would find this interesting: my friend's dad took these photos of the Challenger launch and subsequent explosion." title="Thought /r/space would find this interesting: my friend's dad took these photos of the Challenger launch and subsequent explosion." /></a> </td><td> submitted by <a href="http://www.reddit.com/user/Dragonai"> Dragonai </a> to <a href="http://www.reddit.com/r/space/"> space</a> <br /> <a href="http://imgur.com/a/i8Xr5">[link]</a> <a href="http://www.reddit.com/r/space/comments/vzms1/thought_rspace_would_find_this_interesting_my/">[135 comments]</a> </td></tr></table>
p665
stRp666
sS'updated_parsed'
p667
g53
((I2012
I7
I3
I18
I7
I25
I1
I185
I0
t(dtRp668
sS'links'
p669
(lp670
g1
(g2
g3
(dp671
S'href'
p672
Vhttp://www.reddit.com/r/space/comments/vzms1/thought_rspace_would_find_this_interesting_my/
p673
sg661
S'text/html'
p674
sS'rel'
p675
S'alternate'
p676
stRp677
asS'title'
p678
VThought /r/space would find this interesting: my friend's dad took these photos of the Challenger launch and subsequent explosion.
p679
sS'updated'
p680
VTue, 03 Jul 2012 18:07:25 +0000
p681
sS'media_thumbnail'
p682
V
sS'summary'
p683
g665
sS'guidislink'
p684
I00
sS'title_detail'
p685
g1
(g2
g3
(dp686
g659
S'http://www.reddit.com/.rss?feed=561d220b9383038cb7b3c7a016043e53aff43bf4&user=dunz'
p687
sg661
S'text/plain'
p688
sg663
Nsg664
g679
stRp689
sS'link'
p690
g673
sS'canto_state'
p691
(lp692
g75
aV*
asS'id'
p693
Vhttp://www.reddit.com/r/space/comments/vzms1/thought_rspace_would_find_this_interesting_my/
p694
stRp695
ag1
(g2
g3
(dp696
S'summary_detail'
p697
g1
(g2
g3
(dp698
g659
S'http://www.reddit.com/.rss?feed=561d220b9383038cb7b3c7a016043e53aff43bf4&user=dunz'
p699
sg661
S'text/html'
p700
sg663
Nsg664
V<table> <tr><td> <a href="http://www.reddit.com/r/malefashionadvice/comments/vzjnf/these_photos_are_from_1966_not_2012/"><img src="http://b.thumbs.redditmedia.com/mE86JLJJ4nxQkOm7.jpg" alt="These photos are from 1966, not 2012" title="These photos are from 1966, not 2012" /></a> </td><td> submitted by <a href="http://www.reddit.com/user/JezusGhoti"> JezusGhoti </a> to <a href="http://www.reddit.com/r/malefashionadvice/"> malefashionadvice</a> <br /> <a href="http://www.batteredshoes.com/post/26229232681/amazing-life-magazine-photo-essay-watts-los">[link]</a> <a href="http://www.reddit.com/r/malefashionadvice/comments/vzjnf/these_photos_are_from_1966_not_2012/">[134 comments]</a> </td></tr></table>
p701
stRp702
sg667
g53
((I2012
I7
I3
I17
I17
I55
I1
I185
I0
t(dtRp703
sg669
(lp704
g1
(g2
g3
(dp705
g672
Vhttp://www.reddit.com/r/malefashionadvice/comments/vzjnf/these_photos_are_from_1966_not_2012/
p706
sg661
g674
sg675
g676
stRp707
asg678
VThese photos are from 1966, not 2012
p708
sg680
VTue, 03 Jul 2012 17:17:55 +0000
p709
sS'media_thumbnail'
p710
V
sg683
g701
sg684
I00
sS'title_detail'
p711
g1
(g2
g3
(dp712
g659
S'http://www.reddit.com/.rss?feed=561d220b9383038cb7b3c7a016043e53aff43bf4&user=dunz'
p713
sg661
S'text/plain'
p714
sg663
Nsg664
g708
stRp715
sg690
g706
sg691
(lp716
g75
aV*
asg693
Vhttp://www.reddit.com/r/malefashionadvice/comments/vzjnf/these_photos_are_from_1966_not_2012/
p717
stRp718
ag1
(g2
g3
(dp719
S'summary_detail'
p720
g1
(g2
g3
(dp721
g659
S'http://www.reddit.com/.rss?feed=561d220b9383038cb7b3c7a016043e53aff43bf4&user=dunz'
p722
sg661
S'text/html'
p723
sg663
Nsg664
V<!-- SC_OFF --><div class="md"><p>I was upgrading this guys computer to Windows 7 from XP. He comes in while I'm downloading DaemonTools (I had to put the Win7 ISO on his network because his dvd drive wouldnt function) and he asked me what I was doing. I told him and he said &quot;No I mean did you download a new internet? That's not my internet.&quot; I asked him to show me what he used. He exits to desktop, and clicks the icon for AOL. the login screen comes up, he puts in his information and there it is. AOL9.0. I shit you not. I have not seen this since I was in like 4th grade. He has been using it for years and it is all he knows. He even requested we download it when the installation of win7 was complete.</p> <p>This guy is a wealthy CPA who has won countless awards and he can't maneuver around a computer. It still boggles me how computer illiterate some wealthy people are.</p> <p>Edit: Holy crap front page!</p> </div><!-- SC_ON --> submitted by <a href="http://www.reddit.com/user/edave22"> edave22 </a> to <a href="http://www.reddit.com/r/talesfromtechsupport/"> talesfromtechsupport</a> <br /> <a href="http://www.reddit.com/r/talesfromtechsupport/comments/vzd9i/the_last_living_user_of_aol_90/">[link]</a> <a href="http://www.reddit.com/r/talesfromtechsupport/comments/vzd9i/the_last_living_user_of_aol_90/">[147 comments]</a>
p724
stRp725
sg667
g53
((I2012
I7
I3
I15
I33
I41
I1
I185
I0
t(dtRp726
sg669
(lp727
g1
(g2
g3
(dp728
g672
Vhttp://www.reddit.com/r/talesfromtechsupport/comments/vzd9i/the_last_living_user_of_aol_90/
p729
sg661
g674
sg675
g676
stRp730
asg678
VThe last living user of AOL 9.0
p731
sg680
VTue, 03 Jul 2012 15:33:41 +0000
p732
sg683
g724
sg684
I00
sS'title_detail'
p733
g1
(g2
g3
(dp734
g659
S'http://www.reddit.com/.rss?feed=561d220b9383038cb7b3c7a016043e53aff43bf4&user=dunz'
p735
sg661
S'text/plain'
p736
sg663
Nsg664
g731
stRp737
sg690
g729
sg691
(lp738
g75
aV*
asg693
Vhttp://www.reddit.com/r/talesfromtechsupport/comments/vzd9i/the_last_living_user_of_aol_90/
p739
stRp740
ag1
(g2
g3
(dp741
S'summary_detail'
p742
g1
(g2
g3
(dp743
g659
S'http://www.reddit.com/.rss?feed=561d220b9383038cb7b3c7a016043e53aff43bf4&user=dunz'
p744
sg661
S'text/html'
p745
sg663
Nsg664
V<table> <tr><td> <a href="http://www.reddit.com/r/MachinePorn/comments/vz9ag/tupolev_160_blackjack_1920_x_1200/"><img src="http://b.thumbs.redditmedia.com/6gE9oLbowIOx9C1C.jpg" alt="Tupolev 160 'Blackjack' [1920 x 1200]" title="Tupolev 160 'Blackjack' [1920 x 1200]" /></a> </td><td> submitted by <a href="http://www.reddit.com/user/snipa420"> snipa420 </a> to <a href="http://www.reddit.com/r/MachinePorn/"> MachinePorn</a> <br /> <a href="http://i.imgur.com/hveBe.jpg">[link]</a> <a href="http://www.reddit.com/r/MachinePorn/comments/vz9ag/tupolev_160_blackjack_1920_x_1200/">[19 comments]</a> </td></tr></table>
p746
stRp747
sg667
g53
((I2012
I7
I3
I14
I21
I4
I1
I185
I0
t(dtRp748
sg669
(lp749
g1
(g2
g3
(dp750
g672
Vhttp://www.reddit.com/r/MachinePorn/comments/vz9ag/tupolev_160_blackjack_1920_x_1200/
p751
sg661
g674
sg675
g676
stRp752
asg678
VTupolev 160 'Blackjack' [1920 x 1200]
p753
sg680
VTue, 03 Jul 2012 14:21:04 +0000
p754
sS'media_thumbnail'
p755
V
sg683
g746
sg684
I00
sS'title_detail'
p756
g1
(g2
g3
(dp757
g659
S'http://www.reddit.com/.rss?feed=561d220b9383038cb7b3c7a016043e53aff43bf4&user=dunz'
p758
sg661
S'text/plain'
p759
sg663
Nsg664
g753
stRp760
sg690
g751
sg691
(lp761
g75
aV*
asg693
Vhttp://www.reddit.com/r/MachinePorn/comments/vz9ag/tupolev_160_blackjack_1920_x_1200/
p762
stRp763
ag1
(g2
g3
(dp764
S'summary_detail'
p765
g1
(g2
g3
(dp766
g659
S'http://www.reddit.com/.rss?feed=561d220b9383038cb7b3c7a016043e53aff43bf4&user=dunz'
p767
sg661
S'text/html'
p768
sg663
Nsg664
Vsubmitted by <a href="http://www.reddit.com/user/error9900"> error9900 </a> to <a href="http://www.reddit.com/r/engineering/"> engineering</a> <br /> <a href="http://www.bbc.co.uk/news/science-environment-18684075">[link]</a> <a href="http://www.reddit.com/r/engineering/comments/vzhzg/vertical_ship_marks_50_years_at_sea/">[31 comments]</a>
p769
stRp770
sg667
g53
((I2012
I7
I3
I16
I53
I9
I1
I185
I0
t(dtRp771
sg669
(lp772
g1
(g2
g3
(dp773
g672
Vhttp://www.reddit.com/r/engineering/comments/vzhzg/vertical_ship_marks_50_years_at_sea/
p774
sg661
g674
sg675
g676
stRp775
asg678
VVertical ship marks 50 years at sea
p776
sg680
VTue, 03 Jul 2012 16:53:09 +0000
p777
sg683
g769
sg684
I00
sS'title_detail'
p778
g1
(g2
g3
(dp779
g659
S'http://www.reddit.com/.rss?feed=561d220b9383038cb7b3c7a016043e53aff43bf4&user=dunz'
p780
sg661
S'text/plain'
p781
sg663
Nsg664
g776
stRp782
sg690
g774
sg691
(lp783
g75
aV*
asg693
Vhttp://www.reddit.com/r/engineering/comments/vzhzg/vertical_ship_marks_50_years_at_sea/
p784
stRp785
ag1
(g2
g3
(dp786
S'summary_detail'
p787
g1
(g2
g3
(dp788
g659
S'http://www.reddit.com/.rss?feed=561d220b9383038cb7b3c7a016043e53aff43bf4&user=dunz'
p789
sg661
S'text/html'
p790
sg663
Nsg664
Vsubmitted by <a href="http://www.reddit.com/user/Swades"> Swades </a> to <a href="http://www.reddit.com/r/thewalkingdead/"> thewalkingdead</a> <br /> <a href="http://www.criminalelement.com/blogs/2012/07/the-problem-with-lori-feminism-and-the-walking-dead-angie-barry-thriller-zombies">[link]</a> <a href="http://www.reddit.com/r/thewalkingdead/comments/vzp93/the_problem_with_lori_feminism_and_the_walking/">[38 comments]</a>
p791
stRp792
sg667
g53
((I2012
I7
I3
I18
I45
I37
I1
I185
I0
t(dtRp793
sg669
(lp794
g1
(g2
g3
(dp795
g672
Vhttp://www.reddit.com/r/thewalkingdead/comments/vzp93/the_problem_with_lori_feminism_and_the_walking/
p796
sg661
g674
sg675
g676
stRp797
asg678
V"The Problem with Lori: Feminism and The Walking Dead"[Spoilers Seasons 1&2]
p798
sg680
VTue, 03 Jul 2012 18:45:37 +0000
p799
sg683
g791
sg684
I00
sS'title_detail'
p800
g1
(g2
g3
(dp801
g659
S'http://www.reddit.com/.rss?feed=561d220b9383038cb7b3c7a016043e53aff43bf4&user=dunz'
p802
sg661
S'text/plain'
p803
sg663
Nsg664
g798
stRp804
sg690
g796
sg691
(lp805
g75
aV*
asg693
Vhttp://www.reddit.com/r/thewalkingdead/comments/vzp93/the_problem_with_lori_feminism_and_the_walking/
p806
stRp807
ag1
(g2
g3
(dp808
S'summary_detail'
p809
g1
(g2
g3
(dp810
g659
S'http://www.reddit.com/.rss?feed=561d220b9383038cb7b3c7a016043e53aff43bf4&user=dunz'
p811
sg661
S'text/html'
p812
sg663
Nsg664
V<!-- SC_OFF --><div class="md"><p>About 2 weeks ago a coworker had just finished reading a book about a Jewish family in Nazi Germany. As soon as she finished she turned to us and said &quot;That stuff didn't really happen right?&quot; My first response was &quot;oh god Rebecca is a Holocaust denier&quot;. Then it became apparent she really didn't know. 3 or 4 of us started back from WWI and went from there. Afterwards we asked why she didn't learn of it in school, movies, other books, people etc. She was horrified to discover it was true. This is a woman in her mid thirties who went to schools where it is in the curriculum. What historical events have you found people oblivious to? </p> </div><!-- SC_ON --> submitted by <a href="http://www.reddit.com/user/RevStevening"> RevStevening </a> to <a href="http://www.reddit.com/r/history/"> history</a> <br /> <a href="http://www.reddit.com/r/history/comments/vz1np/coworker_sincerely_asked_if_the_holocaust_took/">[link]</a> <a href="http://www.reddit.com/r/history/comments/vz1np/coworker_sincerely_asked_if_the_holocaust_took/">[608 comments]</a>
p813
stRp814
sg667
g53
((I2012
I7
I3
I10
I42
I52
I1
I185
I0
t(dtRp815
sg669
(lp816
g1
(g2
g3
(dp817
g672
Vhttp://www.reddit.com/r/history/comments/vz1np/coworker_sincerely_asked_if_the_holocaust_took/
p818
sg661
g674
sg675
g676
stRp819
asg678
VCoworker sincerely asked if the Holocaust took place.
p820
sg680
VTue, 03 Jul 2012 10:42:52 +0000
p821
sg683
g813
sg684
I00
sS'title_detail'
p822
g1
(g2
g3
(dp823
g659
S'http://www.reddit.com/.rss?feed=561d220b9383038cb7b3c7a016043e53aff43bf4&user=dunz'
p824
sg661
S'text/plain'
p825
sg663
Nsg664
g820
stRp826
sg690
g818
sg691
(lp827
g75
aV*
asg693
Vhttp://www.reddit.com/r/history/comments/vz1np/coworker_sincerely_asked_if_the_holocaust_took/
p828
stRp829
ag1
(g2
g3
(dp830
S'summary_detail'
p831
g1
(g2
g3
(dp832
g659
S'http://www.reddit.com/.rss?feed=561d220b9383038cb7b3c7a016043e53aff43bf4&user=dunz'
p833
sg661
S'text/html'
p834
sg663
Nsg664
V<!-- SC_OFF --><div class="md"><p>Some time ago I posted here about starting another Linux Documentation Project, but thanks to comments here I understood that it was redundant and not necessary task.</p> <p>Well, I decided to write a book instead. It is addressed to those who want to try Linux, like people who started threads here about this recently. It is now a work in progress, so feedback via comment section is greatly appreciated. Also, English is not my first language, so I would be grateful for erroneous spelling and grammar reports as well.</p> <p>So let me introduce it to you. Learn Linux The Hard Way, <a href="http://nixsrv.com/llthw">http://nixsrv.com/llthw</a></p> <p>Update: spelling</p> <p>Update2: fixed some errors in Exercise 0. Manual Setup.</p> <p>Update3: I wrote simple setup steps in Exercise 0, am currently uploading preconfigured Debian image. I'm not sure I'll get this done today due to crappy Internet I currently have, but will do it tomorrow for sure.</p> <p>Update4: I finished easy setup page, you can download ready appliance now: <a href="https://nixsrv.com/llthw/ex0">https://nixsrv.com/llthw/ex0</a> I hope Dropbox will not fail me, but I'll re-upload this file to another server tomorrow anyway.</p> </div><!-- SC_ON --> submitted by <a href="http://www.reddit.com/user/mwargh"> mwargh </a> to <a href="http://www.reddit.com/r/sysadmin/"> sysadmin</a> <br /> <a href="http://www.reddit.com/r/sysadmin/comments/vzbn5/learn_linux_the_hard_way/">[link]</a> <a href="http://www.reddit.com/r/sysadmin/comments/vzbn5/learn_linux_the_hard_way/">[113 comments]</a>
p835
stRp836
sg667
g53
((I2012
I7
I3
I15
I4
I57
I1
I185
I0
t(dtRp837
sg669
(lp838
g1
(g2
g3
(dp839
g672
Vhttp://www.reddit.com/r/sysadmin/comments/vzbn5/learn_linux_the_hard_way/
p840
sg661
g674
sg675
g676
stRp841
asg678
VLearn Linux The Hard Way
p842
sg680
VTue, 03 Jul 2012 15:04:57 +0000
p843
sg683
g835
sg684
I00
sS'title_detail'
p844
g1
(g2
g3
(dp845
g659
S'http://www.reddit.com/.rss?feed=561d220b9383038cb7b3c7a016043e53aff43bf4&user=dunz'
p846
sg661
S'text/plain'
p847
sg663
Nsg664
g842
stRp848
sg690
g840
sg691
(lp849
Vreddit: the front page of the internet
p850
aV*
aS'read'
p851
asg693
Vhttp://www.reddit.com/r/sysadmin/comments/vzbn5/learn_linux_the_hard_way/
p852
stRp853
ag1
(g2
g3
(dp854
S'summary_detail'
p855
g1
(g2
g3
(dp856
g659
S'http://www.reddit.com/.rss?feed=561d220b9383038cb7b3c7a016043e53aff43bf4&user=dunz'
p857
sg661
S'text/html'
p858
sg663
Nsg664
Vsubmitted by <a href="http://www.reddit.com/user/CptFlwrs"> CptFlwrs </a> to <a href="http://www.reddit.com/r/europe/"> europe</a> <br /> <a href="http://www.wired.co.uk/news/archive/2012-07/03/digital-software-reselling">[link]</a> <a href="http://www.reddit.com/r/europe/comments/vz9x7/eu_rules_that_digitallydistributed_software_can/">[18 comments]</a>
p859
stRp860
sg667
g53
((I2012
I7
I3
I14
I33
I8
I1
I185
I0
t(dtRp861
sg669
(lp862
g1
(g2
g3
(dp863
g672
Vhttp://www.reddit.com/r/europe/comments/vz9x7/eu_rules_that_digitallydistributed_software_can/
p864
sg661
g674
sg675
g676
stRp865
asg678
VEU rules that digitally-distributed software can be resold as "used" (Wired UK)
p866
sg680
VTue, 03 Jul 2012 14:33:08 +0000
p867
sg683
g859
sg684
I00
sS'title_detail'
p868
g1
(g2
g3
(dp869
g659
S'http://www.reddit.com/.rss?feed=561d220b9383038cb7b3c7a016043e53aff43bf4&user=dunz'
p870
sg661
S'text/plain'
p871
sg663
Nsg664
g866
stRp872
sg690
g864
sg691
(lp873
g75
aV*
asg693
Vhttp://www.reddit.com/r/europe/comments/vz9x7/eu_rules_that_digitallydistributed_software_can/
p874
stRp875
ag1
(g2
g3
(dp876
S'summary_detail'
p877
g1
(g2
g3
(dp878
g659
S'http://www.reddit.com/.rss?feed=561d220b9383038cb7b3c7a016043e53aff43bf4&user=dunz'
p879
sg661
S'text/html'
p880
sg663
Nsg664
Vsubmitted by <a href="http://www.reddit.com/user/marquis_of_chaos"> marquis_of_chaos </a> to <a href="http://www.reddit.com/r/Foodforthought/"> Foodforthought</a> <br /> <a href="http://nymag.com/news/features/money-brain-2012-7/?mid=longreads">[link]</a> <a href="http://www.reddit.com/r/Foodforthought/comments/vz1y3/how_money_makes_people_act_less_human/">[36 comments]</a>
p881
stRp882
sg667
g53
((I2012
I7
I3
I10
I54
I43
I1
I185
I0
t(dtRp883
sg669
(lp884
g1
(g2
g3
(dp885
g672
Vhttp://www.reddit.com/r/Foodforthought/comments/vz1y3/how_money_makes_people_act_less_human/
p886
sg661
g674
sg675
g676
stRp887
asg678
VHow Money Makes People Act Less Human
p888
sg680
VTue, 03 Jul 2012 10:54:43 +0000
p889
sg683
g881
sg684
I00
sS'title_detail'
p890
g1
(g2
g3
(dp891
g659
S'http://www.reddit.com/.rss?feed=561d220b9383038cb7b3c7a016043e53aff43bf4&user=dunz'
p892
sg661
S'text/plain'
p893
sg663
Nsg664
g888
stRp894
sg690
g886
sg691
(lp895
g75
aV*
asg693
Vhttp://www.reddit.com/r/Foodforthought/comments/vz1y3/how_money_makes_people_act_less_human/
p896
stRp897
ag1
(g2
g3
(dp898
S'summary_detail'
p899
g1
(g2
g3
(dp900
g659
S'http://www.reddit.com/.rss?feed=561d220b9383038cb7b3c7a016043e53aff43bf4&user=dunz'
p901
sg661
S'text/html'
p902
sg663
Nsg664
V<table> <tr><td> <a href="http://www.reddit.com/r/sweden/comments/vz6ah/hhhmnniska_antar_jag_bda/"><img src="http://f.thumbs.redditmedia.com/6Dbs9yqmJsXJRQv_.jpg" alt="hhh...Mnniska antar jag? Bda?" title="hhh...Mnniska antar jag? Bda?" /></a> </td><td> submitted by <a href="http://www.reddit.com/user/Ctushik"> Ctushik </a> to <a href="http://www.reddit.com/r/sweden/"> sweden</a> <br /> <a href="http://i.imgur.com/BijLu.jpg">[link]</a> <a href="http://www.reddit.com/r/sweden/comments/vz6ah/hhhmnniska_antar_jag_bda/">[18 comments]</a> </td></tr></table>
p903
stRp904
sg667
g53
((I2012
I7
I3
I13
I15
I46
I1
I185
I0
t(dtRp905
sg669
(lp906
g1
(g2
g3
(dp907
g672
Vhttp://www.reddit.com/r/sweden/comments/vz6ah/hhhmnniska_antar_jag_bda/
p908
sg661
g674
sg675
g676
stRp909
asg678
Vhhh...Mnniska antar jag? Bda?
p910
sg680
VTue, 03 Jul 2012 13:15:46 +0000
p911
sS'media_thumbnail'
p912
V
sg683
g903
sg684
I00
sS'title_detail'
p913
g1
(g2
g3
(dp914
g659
S'http://www.reddit.com/.rss?feed=561d220b9383038cb7b3c7a016043e53aff43bf4&user=dunz'
p915
sg661
S'text/plain'
p916
sg663
Nsg664
g910
stRp917
sg690
g908
sg691
(lp918
Vreddit: the front page of the internet
p919
aV*
aS'read'
p920
asg693
Vhttp://www.reddit.com/r/sweden/comments/vz6ah/hhhmnniska_antar_jag_bda/
p921
stRp922
ag1
(g2
g3
(dp923
S'summary_detail'
p924
g1
(g2
g3
(dp925
g659
S'http://www.reddit.com/.rss?feed=561d220b9383038cb7b3c7a016043e53aff43bf4&user=dunz'
p926
sg661
S'text/html'
p927
sg663
Nsg664
Vsubmitted by <a href="http://www.reddit.com/user/twolf1"> twolf1 </a> to <a href="http://www.reddit.com/r/business/"> business</a> <br /> <a href="http://bigstory.ap.org/article/chryslers-us-sales-rise-20-pct-june">[link]</a> <a href="http://www.reddit.com/r/business/comments/vz5ly/demand_across_chryslers_lineup_from_the_fiat_500/">[25 comments]</a>
p928
stRp929
sg667
g53
((I2012
I7
I3
I12
I59
I4
I1
I185
I0
t(dtRp930
sg669
(lp931
g1
(g2
g3
(dp932
g672
Vhttp://www.reddit.com/r/business/comments/vz5ly/demand_across_chryslers_lineup_from_the_fiat_500/
p933
sg661
g674
sg675
g676
stRp934
asg678
VDemand across Chrysler's lineup, from the Fiat 500 to the Ram pickup, drives sales up 20 percent in June
p935
sg680
VTue, 03 Jul 2012 12:59:04 +0000
p936
sg683
g928
sg684
I00
sS'title_detail'
p937
g1
(g2
g3
(dp938
g659
S'http://www.reddit.com/.rss?feed=561d220b9383038cb7b3c7a016043e53aff43bf4&user=dunz'
p939
sg661
S'text/plain'
p940
sg663
Nsg664
g935
stRp941
sg690
g933
sg691
(lp942
g75
aV*
asg693
Vhttp://www.reddit.com/r/business/comments/vz5ly/demand_across_chryslers_lineup_from_the_fiat_500/
p943
stRp944
ag1
(g2
g3
(dp945
S'summary_detail'
p946
g1
(g2
g3
(dp947
g659
S'http://www.reddit.com/.rss?feed=561d220b9383038cb7b3c7a016043e53aff43bf4&user=dunz'
p948
sg661
S'text/html'
p949
sg663
Nsg664
V<table> <tr><td> <a href="http://www.reddit.com/r/photocritique/comments/vzpnd/night_sky_technicaltechniquecomposition/"><img src="http://c.thumbs.redditmedia.com/jRvFuUVtWffYOrOz.jpg" alt="Night sky [technical][technique][composition]" title="Night sky [technical][technique][composition]" /></a> </td><td> submitted by <a href="http://www.reddit.com/user/TanteStahlbrecher"> TanteStahlbrecher </a> to <a href="http://www.reddit.com/r/photocritique/"> photocritique</a> <br /> <a href="http://www.flickr.com/photos/hansel5569/7496008728/">[link]</a> <a href="http://www.reddit.com/r/photocritique/comments/vzpnd/night_sky_technicaltechniquecomposition/">[10 comments]</a> </td></tr></table>
p950
stRp951
sg667
g53
((I2012
I7
I3
I18
I51
I47
I1
I185
I0
t(dtRp952
sg669
(lp953
g1
(g2
g3
(dp954
g672
Vhttp://www.reddit.com/r/photocritique/comments/vzpnd/night_sky_technicaltechniquecomposition/
p955
sg661
g674
sg675
g676
stRp956
asg678
VNight sky [technical][technique][composition]
p957
sg680
VTue, 03 Jul 2012 18:51:47 +0000
p958
sS'media_thumbnail'
p959
V
sg683
g950
sg684
I00
sS'title_detail'
p960
g1
(g2
g3
(dp961
g659
S'http://www.reddit.com/.rss?feed=561d220b9383038cb7b3c7a016043e53aff43bf4&user=dunz'
p962
sg661
S'text/plain'
p963
sg663
Nsg664
g957
stRp964
sg690
g955
sg691
(lp965
g75
aV*
asg693
Vhttp://www.reddit.com/r/photocritique/comments/vzpnd/night_sky_technicaltechniquecomposition/
p966
stRp967
ag1
(g2
g3
(dp968
S'summary_detail'
p969
g1
(g2
g3
(dp970
g659
S'http://www.reddit.com/.rss?feed=561d220b9383038cb7b3c7a016043e53aff43bf4&user=dunz'
p971
sg661
S'text/html'
p972
sg663
Nsg664
V<table> <tr><td> <a href="http://www.reddit.com/r/crafts/comments/vzr5o/how_to_give_pretty_much_anything_a_gold_dipped/"><img src="http://f.thumbs.redditmedia.com/62QJXqyxKT_B2AQk.jpg" alt="How to give pretty much anything a gold dipped look. It's seriously so easy..." title="How to give pretty much anything a gold dipped look. It's seriously so easy..." /></a> </td><td> submitted by <a href="http://www.reddit.com/user/ErinOMalley"> ErinOMalley </a> to <a href="http://www.reddit.com/r/crafts/"> crafts</a> <br /> <a href="http://practicallymartha.blogspot.com/2012/07/gold-dipped-vase.html">[link]</a> <a href="http://www.reddit.com/r/crafts/comments/vzr5o/how_to_give_pretty_much_anything_a_gold_dipped/">[comment]</a> </td></tr></table>
p973
stRp974
sg667
g53
((I2012
I7
I3
I19
I14
I58
I1
I185
I0
t(dtRp975
sg669
(lp976
g1
(g2
g3
(dp977
g672
Vhttp://www.reddit.com/r/crafts/comments/vzr5o/how_to_give_pretty_much_anything_a_gold_dipped/
p978
sg661
g674
sg675
g676
stRp979
asg678
VHow to give pretty much anything a gold dipped look. It's seriously so easy...
p980
sg680
VTue, 03 Jul 2012 19:14:58 +0000
p981
sS'media_thumbnail'
p982
V
sg683
g973
sg684
I00
sS'title_detail'
p983
g1
(g2
g3
(dp984
g659
S'http://www.reddit.com/.rss?feed=561d220b9383038cb7b3c7a016043e53aff43bf4&user=dunz'
p985
sg661
S'text/plain'
p986
sg663
Nsg664
g980
stRp987
sg690
g978
sg691
(lp988
g75
aV*
asg693
Vhttp://www.reddit.com/r/crafts/comments/vzr5o/how_to_give_pretty_much_anything_a_gold_dipped/
p989
stRp990
asS'canto_update'
p991
F1341377452.8513961
sS'headers'
p992
(dp993
S'content-length'
p994
S'26825'
p995
sS'set-cookie'
p996
S'reddit_first=%7B%22firsttime%22%3A%20%22first%22%7D; Domain=reddit.com; expires=Thu, 31 Dec 2037 23:59:59 GMT; Path=/'
p997
sS'vary'
p998
S'Accept-Encoding'
p999
sS'server'
p1000
S"'; DROP TABLE servertypes; --"
p1001
sS'connection'
p1002
S'close'
p1003
sS'pragma'
p1004
S'no-cache'
p1005
sS'cache-control'
p1006
S'no-cache'
p1007
sS'date'
p1008
S'Wed, 04 Jul 2012 04:50:51 GMT'
p1009
sS'content-type'
p1010
S'text/xml; charset=UTF-8'
p1011
ssS'version'
p1012
S'rss20'
p1013
sg73
(lp1014
sg21
S'http://www.reddit.com/.rss?feed=561d220b9383038cb7b3c7a016043e53aff43bf4&user=dunz'
p1015
sS'namespaces'
p1016
(dp1017
Vmedia
p1018
Vhttp://search.yahoo.com/mrss/
p1019
sS'dc'
p1020
Vhttp://purl.org/dc/elements/1.1/
p1021
ssS'canto_version'
p1022
(I0
I7
I10
tp1023
stRp1024
.