ccopy_reg
_reconstructor
p1
(ccanto.feedparser_builtin
FeedParserDict
p2
c__builtin__
dict
p3
(dp4
S'feed'
p5
g1
(g2
g3
(dp6
S'title_detail'
p7
g1
(g2
g3
(dp8
S'base'
p9
S'http://www.reddit.com/.rss'
p10
sS'type'
p11
S'text/plain'
p12
sS'language'
p13
NsS'value'
p14
Vreddit: the front page of the internet
p15
stRp16
sS'subtitle'
p17
V
sS'links'
p18
(lp19
g1
(g2
g3
(dp20
S'href'
p21
Vhttp://www.reddit.com/
p22
sg11
S'text/html'
p23
sS'rel'
p24
S'alternate'
p25
stRp26
ag1
(g2
g3
(dp27
g11
g23
sg24
g25
stRp28
asS'title'
p29
g15
sS'link'
p30
g22
sS'image'
p31
g1
(g2
g3
(dp32
g21
Vhttp://www.reddit.com/reddit.com.header.png
p33
sg30
Vhttp://www.reddit.com/
p34
sg29
Vreddit: the front page of the internet
p35
stRp36
sS'subtitle_detail'
p37
g1
(g2
g3
(dp38
g9
S'http://www.reddit.com/.rss'
p39
sg11
S'text/html'
p40
sg13
Nsg14
V
stRp41
stRp42
sS'status'
p43
I200
sS'encoding'
p44
S'UTF-8'
p45
sS'bozo'
p46
I0
sS'entries'
p47
(lp48
g1
(g2
g3
(dp49
S'updated'
p50
VTue, 03 Jul 2012 21:11:02 +0000
p51
sS'updated_parsed'
p52
ctime
struct_time
p53
((I2012
I7
I3
I21
I11
I2
I1
I185
I0
t(dtRp54
sg18
(lp55
g1
(g2
g3
(dp56
g21
Vhttp://www.reddit.com/r/aww/comments/vzygm/after_sending_off_my_husbands_ship_for_an_8_month/
p57
sg11
g23
sg24
g25
stRp58
asg29
VAfter sending off my husband's ship for an 8 month deployment, a flower delivery to my office turned into the sweetest thing he could've done for me...
p59
sS'summary_detail'
p60
g1
(g2
g3
(dp61
g9
S'http://www.reddit.com/.rss'
p62
sg11
S'text/html'
p63
sg13
Nsg14
V<table> <tr><td> <a href="http://www.reddit.com/r/aww/comments/vzygm/after_sending_off_my_husbands_ship_for_an_8_month/"><img src="http://e.thumbs.redditmedia.com/dZwLk-W55WPVfwBj.jpg" alt="After sending off my husband's ship for an 8 month deployment, a flower delivery to my office turned into the sweetest thing he could've done for me..." title="After sending off my husband's ship for an 8 month deployment, a flower delivery to my office turned into the sweetest thing he could've done for me..." /></a> </td><td> submitted by <a href="http://www.reddit.com/user/__queenofhearts"> __queenofhearts </a> to <a href="http://www.reddit.com/r/aww/"> aww</a> <br /> <a href="http://imgur.com/a/tNLyO">[link]</a> <a href="http://www.reddit.com/r/aww/comments/vzygm/after_sending_off_my_husbands_ship_for_an_8_month/">[1107 comments]</a> </td></tr></table>
p64
stRp65
sS'media_thumbnail'
p66
V
sS'summary'
p67
g64
sS'guidislink'
p68
I00
sS'title_detail'
p69
g1
(g2
g3
(dp70
g9
S'http://www.reddit.com/.rss'
p71
sg11
S'text/plain'
p72
sg13
Nsg14
g59
stRp73
sg30
g57
sS'canto_state'
p74
(lp75
g15
aV*
asS'id'
p76
Vhttp://www.reddit.com/r/aww/comments/vzygm/after_sending_off_my_husbands_ship_for_an_8_month/
p77
stRp78
ag1
(g2
g3
(dp79
g50
VTue, 03 Jul 2012 21:01:39 +0000
p80
sg52
g53
((I2012
I7
I3
I21
I1
I39
I1
I185
I0
t(dtRp81
sg18
(lp82
g1
(g2
g3
(dp83
g21
Vhttp://www.reddit.com/r/funny/comments/vzxxp/what_my_wife_thinks_will_happen_if_she_tries_to/
p84
sg11
g23
sg24
g25
stRp85
asg29
VWhat my wife thinks will happen if she tries to kill the spider herself
p86
sS'summary_detail'
p87
g1
(g2
g3
(dp88
g9
S'http://www.reddit.com/.rss'
p89
sg11
S'text/html'
p90
sg13
Nsg14
Vsubmitted by <a href="http://www.reddit.com/user/MrsSippy"> MrsSippy </a> to <a href="http://www.reddit.com/r/funny/"> funny</a> <br /> <a href="http://i.imgur.com/iZdVi.gif">[link]</a> <a href="http://www.reddit.com/r/funny/comments/vzxxp/what_my_wife_thinks_will_happen_if_she_tries_to/">[188 comments]</a>
p91
stRp92
sg67
g91
sg68
I00
sS'title_detail'
p93
g1
(g2
g3
(dp94
g9
S'http://www.reddit.com/.rss'
p95
sg11
S'text/plain'
p96
sg13
Nsg14
g86
stRp97
sg30
g84
sg74
(lp98
g15
aV*
asg76
Vhttp://www.reddit.com/r/funny/comments/vzxxp/what_my_wife_thinks_will_happen_if_she_tries_to/
p99
stRp100
ag1
(g2
g3
(dp101
g50
VTue, 03 Jul 2012 19:14:18 +0000
p102
sg52
g53
((I2012
I7
I3
I19
I14
I18
I1
I185
I0
t(dtRp103
sg18
(lp104
g1
(g2
g3
(dp105
g21
Vhttp://www.reddit.com/r/pics/comments/vzr42/reallife_merida/
p106
sg11
g23
sg24
g25
stRp107
asg29
VReal-life Merida
p108
sS'summary_detail'
p109
g1
(g2
g3
(dp110
g9
S'http://www.reddit.com/.rss'
p111
sg11
S'text/html'
p112
sg13
Nsg14
V<table> <tr><td> <a href="http://www.reddit.com/r/pics/comments/vzr42/reallife_merida/"><img src="http://e.thumbs.redditmedia.com/87LPug2mgYlsK5EF.jpg" alt="Real-life Merida" title="Real-life Merida" /></a> </td><td> submitted by <a href="http://www.reddit.com/user/mangohedgehog"> mangohedgehog </a> to <a href="http://www.reddit.com/r/pics/"> pics</a> <br /> <a href="http://imgur.com/8MJOx">[link]</a> <a href="http://www.reddit.com/r/pics/comments/vzr42/reallife_merida/">[1178 comments]</a> </td></tr></table>
p113
stRp114
sS'media_thumbnail'
p115
V
sg67
g113
sg68
I00
sS'title_detail'
p116
g1
(g2
g3
(dp117
g9
S'http://www.reddit.com/.rss'
p118
sg11
S'text/plain'
p119
sg13
Nsg14
g108
stRp120
sg30
g106
sg74
(lp121
g15
aV*
asg76
Vhttp://www.reddit.com/r/pics/comments/vzr42/reallife_merida/
p122
stRp123
ag1
(g2
g3
(dp124
g50
VTue, 03 Jul 2012 19:32:13 +0000
p125
sg52
g53
((I2012
I7
I3
I19
I32
I13
I1
I185
I0
t(dtRp126
sg18
(lp127
g1
(g2
g3
(dp128
g21
Vhttp://www.reddit.com/r/movies/comments/vzs9z/my_friend_works_for_a_company_that_makes_those/
p129
sg11
g23
sg24
g25
stRp130
asg29
VMy friend works for a company that makes those 'Precious Moments' figurines, this concept was sadly rejected... (Aliens)
p131
sS'summary_detail'
p132
g1
(g2
g3
(dp133
g9
S'http://www.reddit.com/.rss'
p134
sg11
S'text/html'
p135
sg13
Nsg14
Vsubmitted by <a href="http://www.reddit.com/user/crapidrawatwork"> crapidrawatwork </a> to <a href="http://www.reddit.com/r/movies/"> movies</a> <br /> <a href="http://i.imgur.com/CpTId.jpg">[link]</a> <a href="http://www.reddit.com/r/movies/comments/vzs9z/my_friend_works_for_a_company_that_makes_those/">[146 comments]</a>
p136
stRp137
sg67
g136
sg68
I00
sS'title_detail'
p138
g1
(g2
g3
(dp139
g9
S'http://www.reddit.com/.rss'
p140
sg11
S'text/plain'
p141
sg13
Nsg14
g131
stRp142
sg30
g129
sg74
(lp143
g15
aV*
asg76
Vhttp://www.reddit.com/r/movies/comments/vzs9z/my_friend_works_for_a_company_that_makes_those/
p144
stRp145
ag1
(g2
g3
(dp146
g50
VTue, 03 Jul 2012 20:34:53 +0000
p147
sg52
g53
((I2012
I7
I3
I20
I34
I53
I1
I185
I0
t(dtRp148
sg18
(lp149
g1
(g2
g3
(dp150
g21
Vhttp://www.reddit.com/r/gaming/comments/vzw8g/my_whole_life/
p151
sg11
g23
sg24
g25
stRp152
asg29
VMy whole life...
p153
sS'summary_detail'
p154
g1
(g2
g3
(dp155
g9
S'http://www.reddit.com/.rss'
p156
sg11
S'text/html'
p157
sg13
Nsg14
V<table> <tr><td> <a href="http://www.reddit.com/r/gaming/comments/vzw8g/my_whole_life/"><img src="http://e.thumbs.redditmedia.com/TuBKilUVuKGh_LZL.jpg" alt="My whole life..." title="My whole life..." /></a> </td><td> submitted by <a href="http://www.reddit.com/user/tylercap"> tylercap </a> to <a href="http://www.reddit.com/r/gaming/"> gaming</a> <br /> <a href="http://i.imgur.com/vsbN6.jpg">[link]</a> <a href="http://www.reddit.com/r/gaming/comments/vzw8g/my_whole_life/">[186 comments]</a> </td></tr></table>
p158
stRp159
sS'media_thumbnail'
p160
V
sg67
g158
sg68
I00
sS'title_detail'
p161
g1
(g2
g3
(dp162
g9
S'http://www.reddit.com/.rss'
p163
sg11
S'text/plain'
p164
sg13
Nsg14
g153
stRp165
sg30
g151
sg74
(lp166
g15
aV*
asg76
Vhttp://www.reddit.com/r/gaming/comments/vzw8g/my_whole_life/
p167
stRp168
ag1
(g2
g3
(dp169
g50
VTue, 03 Jul 2012 19:38:36 +0000
p170
sg52
g53
((I2012
I7
I3
I19
I38
I36
I1
I185
I0
t(dtRp171
sg18
(lp172
g1
(g2
g3
(dp173
g21
Vhttp://www.reddit.com/r/atheism/comments/vzsou/this_actually_happens_more_often_than_youd_think/
p174
sg11
g23
sg24
g25
stRp175
asg29
VThis actually happens more often than you'd think.
p176
sS'summary_detail'
p177
g1
(g2
g3
(dp178
g9
S'http://www.reddit.com/.rss'
p179
sg11
S'text/html'
p180
sg13
Nsg14
V<table> <tr><td> <a href="http://www.reddit.com/r/atheism/comments/vzsou/this_actually_happens_more_often_than_youd_think/"><img src="http://e.thumbs.redditmedia.com/5bsagHj3GiBOhU9v.jpg" alt="This actually happens more often than you'd think." title="This actually happens more often than you'd think." /></a> </td><td> submitted by <a href="http://www.reddit.com/user/theforshizzalist"> theforshizzalist </a> to <a href="http://www.reddit.com/r/atheism/"> atheism</a> <br /> <a href="http://i.imgur.com/17SWx.png">[link]</a> <a href="http://www.reddit.com/r/atheism/comments/vzsou/this_actually_happens_more_often_than_youd_think/">[414 comments]</a> </td></tr></table>
p181
stRp182
sS'media_thumbnail'
p183
V
sg67
g181
sg68
I00
sS'title_detail'
p184
g1
(g2
g3
(dp185
g9
S'http://www.reddit.com/.rss'
p186
sg11
S'text/plain'
p187
sg13
Nsg14
g176
stRp188
sg30
g174
sg74
(lp189
g15
aV*
asg76
Vhttp://www.reddit.com/r/atheism/comments/vzsou/this_actually_happens_more_often_than_youd_think/
p190
stRp191
ag1
(g2
g3
(dp192
g50
VTue, 03 Jul 2012 17:51:07 +0000
p193
sg52
g53
((I2012
I7
I3
I17
I51
I7
I1
I185
I0
t(dtRp194
sg18
(lp195
g1
(g2
g3
(dp196
g21
Vhttp://www.reddit.com/r/videos/comments/vzlrc/when_a_cop_came_into_our_campsite_we_thought_we/
p197
sg11
g23
sg24
g25
stRp198
asg29
VWhen a cop came into our campsite, we thought we were in trouble. It turns out he just wanted to play guitar and drums. Here he is jamming with my buddy.
p199
sS'summary_detail'
p200
g1
(g2
g3
(dp201
g9
S'http://www.reddit.com/.rss'
p202
sg11
S'text/html'
p203
sg13
Nsg14
V<table> <tr><td> <a href="http://www.reddit.com/r/videos/comments/vzlrc/when_a_cop_came_into_our_campsite_we_thought_we/"><img src="http://c.thumbs.redditmedia.com/tjWad5ihLP90E7oD.jpg" alt="When a cop came into our campsite, we thought we were in trouble. It turns out he just wanted to play guitar and drums. Here he is jamming with my buddy." title="When a cop came into our campsite, we thought we were in trouble. It turns out he just wanted to play guitar and drums. Here he is jamming with my buddy." /></a> </td><td> submitted by <a href="http://www.reddit.com/user/ShawnisMaximus"> ShawnisMaximus </a> to <a href="http://www.reddit.com/r/videos/"> videos</a> <br /> <a href="http://www.youtube.com/watch?v=7KTnLVzI2q4&feature=youtu.be">[link]</a> <a href="http://www.reddit.com/r/videos/comments/vzlrc/when_a_cop_came_into_our_campsite_we_thought_we/">[451 comments]</a> </td></tr></table>
p204
stRp205
sS'media_thumbnail'
p206
V
sg67
g204
sg68
I00
sS'title_detail'
p207
g1
(g2
g3
(dp208
g9
S'http://www.reddit.com/.rss'
p209
sg11
S'text/plain'
p210
sg13
Nsg14
g199
stRp211
sg30
g197
sg74
(lp212
g15
aV*
asg76
Vhttp://www.reddit.com/r/videos/comments/vzlrc/when_a_cop_came_into_our_campsite_we_thought_we/
p213
stRp214
ag1
(g2
g3
(dp215
g50
VTue, 03 Jul 2012 19:12:39 +0000
p216
sg52
g53
((I2012
I7
I3
I19
I12
I39
I1
I185
I0
t(dtRp217
sg18
(lp218
g1
(g2
g3
(dp219
g21
Vhttp://www.reddit.com/r/WTF/comments/vzr0a/rarchitectureporn_didnt_appreciate_this/
p220
sg11
g23
sg24
g25
stRp221
asg29
V/r/ArchitecturePorn didn't appreciate this
p222
sS'summary_detail'
p223
g1
(g2
g3
(dp224
g9
S'http://www.reddit.com/.rss'
p225
sg11
S'text/html'
p226
sg13
Nsg14
Vsubmitted by <a href="http://www.reddit.com/user/kraven420"> kraven420 </a> to <a href="http://www.reddit.com/r/WTF/"> WTF</a> <br /> <a href="http://i.imgur.com/0VtbF.jpg">[link]</a> <a href="http://www.reddit.com/r/WTF/comments/vzr0a/rarchitectureporn_didnt_appreciate_this/">[176 comments]</a>
p227
stRp228
sg67
g227
sg68
I00
sS'title_detail'
p229
g1
(g2
g3
(dp230
g9
S'http://www.reddit.com/.rss'
p231
sg11
S'text/plain'
p232
sg13
Nsg14
g222
stRp233
sg30
g220
sg74
(lp234
g15
aV*
asg76
Vhttp://www.reddit.com/r/WTF/comments/vzr0a/rarchitectureporn_didnt_appreciate_this/
p235
stRp236
ag1
(g2
g3
(dp237
g50
VTue, 03 Jul 2012 14:24:42 +0000
p238
sg52
g53
((I2012
I7
I3
I14
I24
I42
I1
I185
I0
t(dtRp239
sg18
(lp240
g1
(g2
g3
(dp241
g21
Vhttp://www.reddit.com/r/politics/comments/vz9h9/governmentsponsored_study_destroys_deas/
p242
sg11
g23
sg24
g25
stRp243
asg29
VGovernment-sponsored study destroys DEA\u2019s classification of marijuana
p244
sS'summary_detail'
p245
g1
(g2
g3
(dp246
g9
S'http://www.reddit.com/.rss'
p247
sg11
S'text/html'
p248
sg13
Nsg14
Vsubmitted by <a href="http://www.reddit.com/user/twolf1"> twolf1 </a> to <a href="http://www.reddit.com/r/politics/"> politics</a> <br /> <a href="http://www.rawstory.com/rs/2012/07/03/government-sponsored-study-destroys-deas-classification-of-marijuana/">[link]</a> <a href="http://www.reddit.com/r/politics/comments/vz9h9/governmentsponsored_study_destroys_deas/">[1384 comments]</a>
p249
stRp250
sg67
g249
sg68
I00
sS'title_detail'
p251
g1
(g2
g3
(dp252
g9
S'http://www.reddit.com/.rss'
p253
sg11
S'text/plain'
p254
sg13
Nsg14
g244
stRp255
sg30
g242
sg74
(lp256
g15
aV*
asg76
Vhttp://www.reddit.com/r/politics/comments/vz9h9/governmentsponsored_study_destroys_deas/
p257
stRp258
ag1
(g2
g3
(dp259
g50
VTue, 03 Jul 2012 17:03:50 +0000
p260
sg52
g53
((I2012
I7
I3
I17
I3
I50
I1
I185
I0
t(dtRp261
sg18
(lp262
g1
(g2
g3
(dp263
g21
Vhttp://www.reddit.com/r/AdviceAnimals/comments/vzini/the_worst_part_about_being_a_redditor_from/
p264
sg11
g23
sg24
g25
stRp265
asg29
VThe worst part about being a redditor from Illinois...
p266
sS'summary_detail'
p267
g1
(g2
g3
(dp268
g9
S'http://www.reddit.com/.rss'
p269
sg11
S'text/html'
p270
sg13
Nsg14
V<table> <tr><td> <a href="http://www.reddit.com/r/AdviceAnimals/comments/vzini/the_worst_part_about_being_a_redditor_from/"><img src="http://b.thumbs.redditmedia.com/RZUdiTqVZqSlfWCm.jpg" alt="The worst part about being a redditor from Illinois..." title="The worst part about being a redditor from Illinois..." /></a> </td><td> submitted by <a href="http://www.reddit.com/user/Awesomeade"> Awesomeade </a> to <a href="http://www.reddit.com/r/AdviceAnimals/"> AdviceAnimals</a> <br /> <a href="http://i.imgur.com/LkP0y.jpg">[link]</a> <a href="http://www.reddit.com/r/AdviceAnimals/comments/vzini/the_worst_part_about_being_a_redditor_from/">[804 comments]</a> </td></tr></table>
p271
stRp272
sS'media_thumbnail'
p273
V
sg67
g271
sg68
I00
sS'title_detail'
p274
g1
(g2
g3
(dp275
g9
S'http://www.reddit.com/.rss'
p276
sg11
S'text/plain'
p277
sg13
Nsg14
g266
stRp278
sg30
g264
sg74
(lp279
g15
aV*
asg76
Vhttp://www.reddit.com/r/AdviceAnimals/comments/vzini/the_worst_part_about_being_a_redditor_from/
p280
stRp281
ag1
(g2
g3
(dp282
g50
VTue, 03 Jul 2012 16:57:05 +0000
p283
sg52
g53
((I2012
I7
I3
I16
I57
I5
I1
I185
I0
t(dtRp284
sg18
(lp285
g1
(g2
g3
(dp286
g21
Vhttp://www.reddit.com/r/Music/comments/vzi7u/dear_nbc_stop_using_london_calling_for_your/
p287
sg11
g23
sg24
g25
stRp288
asg29
VDear NBC, Stop using "London Calling" for your Olympic Promos. It is not a "pro-London" song. Here's why
p289
sS'summary_detail'
p290
g1
(g2
g3
(dp291
g9
S'http://www.reddit.com/.rss'
p292
sg11
S'text/html'
p293
sg13
Nsg14
Vsubmitted by <a href="http://www.reddit.com/user/FecklessThug"> FecklessThug </a> to <a href="http://www.reddit.com/r/Music/"> Music</a> <br /> <a href="http://en.wikipedia.org/wiki/London_Calling_(song)">[link]</a> <a href="http://www.reddit.com/r/Music/comments/vzi7u/dear_nbc_stop_using_london_calling_for_your/">[676 comments]</a>
p294
stRp295
sg67
g294
sg68
I00
sS'title_detail'
p296
g1
(g2
g3
(dp297
g9
S'http://www.reddit.com/.rss'
p298
sg11
S'text/plain'
p299
sg13
Nsg14
g289
stRp300
sg30
g287
sg74
(lp301
g15
aV*
asg76
Vhttp://www.reddit.com/r/Music/comments/vzi7u/dear_nbc_stop_using_london_calling_for_your/
p302
stRp303
ag1
(g2
g3
(dp304
g50
VTue, 03 Jul 2012 22:22:32 +0000
p305
sg52
g53
((I2012
I7
I3
I22
I22
I32
I1
I185
I0
t(dtRp306
sg18
(lp307
g1
(g2
g3
(dp308
g21
Vhttp://www.reddit.com/r/technology/comments/w02ra/athene_interviews_peter_sunde_the_pirate_bay/
p309
sg11
g23
sg24
g25
stRp310
asg29
VAthene Interviews Peter Sunde (The Pirate Bay) about Net Neutrality and more
p311
sS'summary_detail'
p312
g1
(g2
g3
(dp313
g9
S'http://www.reddit.com/.rss'
p314
sg11
S'text/html'
p315
sg13
Nsg14
Vsubmitted by <a href="http://www.reddit.com/user/reese015"> reese015 </a> to <a href="http://www.reddit.com/r/technology/"> technology</a> <br /> <a href="http://www.youtube.com/watch?v=xkBfylTh3XY">[link]</a> <a href="http://www.reddit.com/r/technology/comments/w02ra/athene_interviews_peter_sunde_the_pirate_bay/">[98 comments]</a>
p316
stRp317
sg67
g316
sg68
I00
sS'title_detail'
p318
g1
(g2
g3
(dp319
g9
S'http://www.reddit.com/.rss'
p320
sg11
S'text/plain'
p321
sg13
Nsg14
g311
stRp322
sg30
g309
sg74
(lp323
g15
aV*
asg76
Vhttp://www.reddit.com/r/technology/comments/w02ra/athene_interviews_peter_sunde_the_pirate_bay/
p324
stRp325
ag1
(g2
g3
(dp326
g50
VTue, 03 Jul 2012 21:04:18 +0000
p327
sg52
g53
((I2012
I7
I3
I21
I4
I18
I1
I185
I0
t(dtRp328
sg18
(lp329
g1
(g2
g3
(dp330
g21
Vhttp://www.reddit.com/r/science/comments/vzy35/first_vein_grown_from_human_stem_cells/
p331
sg11
g23
sg24
g25
stRp332
asg29
VFirst vein grown from human stem cells successfully transplanted into a young girl
p333
sS'summary_detail'
p334
g1
(g2
g3
(dp335
g9
S'http://www.reddit.com/.rss'
p336
sg11
S'text/html'
p337
sg13
Nsg14
Vsubmitted by <a href="http://www.reddit.com/user/JB_UK"> JB_UK </a> to <a href="http://www.reddit.com/r/science/"> science</a> <br /> <a href="http://blogs.nature.com/news/2012/06/first-vein-grown-from-human-stem-cells-successfully-transplanted-into-a-young-girl.html">[link]</a> <a href="http://www.reddit.com/r/science/comments/vzy35/first_vein_grown_from_human_stem_cells/">[29 comments]</a>
p338
stRp339
sg67
g338
sg68
I00
sS'title_detail'
p340
g1
(g2
g3
(dp341
g9
S'http://www.reddit.com/.rss'
p342
sg11
S'text/plain'
p343
sg13
Nsg14
g333
stRp344
sg30
g331
sg74
(lp345
g15
aV*
asg76
Vhttp://www.reddit.com/r/science/comments/vzy35/first_vein_grown_from_human_stem_cells/
p346
stRp347
ag1
(g2
g3
(dp348
g50
VTue, 03 Jul 2012 15:57:32 +0000
p349
sg52
g53
((I2012
I7
I3
I15
I57
I32
I1
I185
I0
t(dtRp350
sg18
(lp351
g1
(g2
g3
(dp352
g21
Vhttp://www.reddit.com/r/IAmA/comments/vzen9/i_was_dumb_enough_to_go_on_wipeout_ama/
p353
sg11
g23
sg24
g25
stRp354
asg29
VI was dumb enough to go on WipeOut. AMA!
p355
sS'summary_detail'
p356
g1
(g2
g3
(dp357
g9
S'http://www.reddit.com/.rss'
p358
sg11
S'text/html'
p359
sg13
Nsg14
V<!-- SC_OFF --><div class="md"><p>I wanted my 15 minutes of fame. Instead I got hours upon hours of pain.</p> <p>I was on the episode &quot;Spring Episode 3: John Henson, Zombie Hunter&quot; which aired March 31, 2011.</p> <p>I did not make it very far, I came in LAST in the qualifier, but I did finish it. I did go through the long casting, application, drug and fitness testing process, and I beat out over 74,000 other applicants. It was a very interesting experience, albeit a painful one.</p> <p>Here is some proof: Me on big balls <a href="http://i.imgur.com/8IaGC">Imgur</a> the shot of me that made it on TV <a href="http://i.imgur.com/G6xMb">Imgur</a> my favorite one of my face smashed and a banana penis <a href="http://i.imgur.com/h6dhp">Imgur</a> and my parking pass <a href="http://i.imgur.com/GOjFK">Imgur</a></p> <p>I am new-ish to reddit, I hope I posted the images correctly. Let me know if I didn't! And AMA!</p> <p><strong>Edit: fixed an image link</strong></p> <p><strong>Edit: HOLY BIG BALLS this is doing well. I would love to hear from someone that had a different/better experience on the show, an AMA or in the comments</strong></p> <p><strong>EDIT: here is a AMA with someone that WON wipeout, had a very different experience than I did.</strong> <a href="http://www.reddit.com/r/IAmA/comments/w0244/i_am_dorky_kong_wipeouts_latest_winner_ama/">http://www.reddit.com/r/IAmA/comments/w0244/i_am_dorky_kong_wipeouts_latest_winner_ama/</a></p> </div><!-- SC_ON --> submitted by <a href="http://www.reddit.com/user/Chicki5150"> Chicki5150 </a> to <a href="http://www.reddit.com/r/IAmA/"> IAmA</a> <br /> <a href="http://www.reddit.com/r/IAmA/comments/vzen9/i_was_dumb_enough_to_go_on_wipeout_ama/">[link]</a> <a href="http://www.reddit.com/r/IAmA/comments/vzen9/i_was_dumb_enough_to_go_on_wipeout_ama/">[1732 comments]</a>
p360
stRp361
sg67
g360
sg68
I00
sS'title_detail'
p362
g1
(g2
g3
(dp363
g9
S'http://www.reddit.com/.rss'
p364
sg11
S'text/plain'
p365
sg13
Nsg14
g355
stRp366
sg30
g353
sg74
(lp367
g15
aV*
asg76
Vhttp://www.reddit.com/r/IAmA/comments/vzen9/i_was_dumb_enough_to_go_on_wipeout_ama/
p368
stRp369
ag1
(g2
g3
(dp370
g50
VTue, 03 Jul 2012 12:33:17 +0000
p371
sg52
g53
((I2012
I7
I3
I12
I33
I17
I1
I185
I0
t(dtRp372
sg18
(lp373
g1
(g2
g3
(dp374
g21
Vhttp://www.reddit.com/r/worldnews/comments/vz4pk/european_court_declares_resale_of_used_software/
p375
sg11
g23
sg24
g25
stRp376
asg29
VEuropean court declares resale of used software licenses legal, not matter where and how they were obtained.
p377
sS'summary_detail'
p378
g1
(g2
g3
(dp379
g9
S'http://www.reddit.com/.rss'
p380
sg11
S'text/html'
p381
sg13
Nsg14
Vsubmitted by <a href="http://www.reddit.com/user/rawfan"> rawfan </a> to <a href="http://www.reddit.com/r/worldnews/"> worldnews</a> <br /> <a href="http://www.dw.de/dw/article/0,,16069323,00.html">[link]</a> <a href="http://www.reddit.com/r/worldnews/comments/vz4pk/european_court_declares_resale_of_used_software/">[750 comments]</a>
p382
stRp383
sg67
g382
sg68
I00
sS'title_detail'
p384
g1
(g2
g3
(dp385
g9
S'http://www.reddit.com/.rss'
p386
sg11
S'text/plain'
p387
sg13
Nsg14
g377
stRp388
sg30
g375
sg74
(lp389
g15
aV*
asg76
Vhttp://www.reddit.com/r/worldnews/comments/vz4pk/european_court_declares_resale_of_used_software/
p390
stRp391
ag1
(g2
g3
(dp392
g50
VTue, 03 Jul 2012 14:32:49 +0000
p393
sg52
g53
((I2012
I7
I3
I14
I32
I49
I1
I185
I0
t(dtRp394
sg18
(lp395
g1
(g2
g3
(dp396
g21
Vhttp://www.reddit.com/r/todayilearned/comments/vz9wo/til_parts_of_new_york_city_have_a_vacuumdriven/
p397
sg11
g23
sg24
g25
stRp398
asg29
VTIL Parts of New York City have a vacuum-driven garbage-collection system that literally sucks trash through pipes under the streets to a central disposal location\u2013and has had it for 35 years.
p399
sS'summary_detail'
p400
g1
(g2
g3
(dp401
g9
S'http://www.reddit.com/.rss'
p402
sg11
S'text/html'
p403
sg13
Nsg14
V<table> <tr><td> <a href="http://www.reddit.com/r/todayilearned/comments/vz9wo/til_parts_of_new_york_city_have_a_vacuumdriven/"><img src="http://a.thumbs.redditmedia.com/hENzyHVDsey5ugFZ.jpg" alt="TIL Parts of New York City have a vacuum-driven garbage-collection system that literally sucks trash through pipes under the streets to a central disposal location\u2013and has had it for 35 years." title="TIL Parts of New York City have a vacuum-driven garbage-collection system that literally sucks trash through pipes under the streets to a central disposal location\u2013and has had it for 35 years." /></a> </td><td> submitted by <a href="http://www.reddit.com/user/wordsmithie"> wordsmithie </a> to <a href="http://www.reddit.com/r/todayilearned/"> todayilearned</a> <br /> <a href="http://www.newyorker.com/archive/2003/11/17/031117ta_talk_taylor">[link]</a> <a href="http://www.reddit.com/r/todayilearned/comments/vz9wo/til_parts_of_new_york_city_have_a_vacuumdriven/">[276 comments]</a> </td></tr></table>
p404
stRp405
sS'media_thumbnail'
p406
V
sg67
g404
sg68
I00
sS'title_detail'
p407
g1
(g2
g3
(dp408
g9
S'http://www.reddit.com/.rss'
p409
sg11
S'text/plain'
p410
sg13
Nsg14
g399
stRp411
sg30
g397
sg74
(lp412
g15
aV*
asg76
Vhttp://www.reddit.com/r/todayilearned/comments/vz9wo/til_parts_of_new_york_city_have_a_vacuumdriven/
p413
stRp414
ag1
(g2
g3
(dp415
g50
VTue, 03 Jul 2012 14:15:45 +0000
p416
sg52
g53
((I2012
I7
I3
I14
I15
I45
I1
I185
I0
t(dtRp417
sg18
(lp418
g1
(g2
g3
(dp419
g21
Vhttp://www.reddit.com/r/bestof/comments/vz903/one_dads_definition_of_what_being_a_man_means/
p420
sg11
g23
sg24
g25
stRp421
asg29
VOne dad's definition of what being a man means
p422
sS'summary_detail'
p423
g1
(g2
g3
(dp424
g9
S'http://www.reddit.com/.rss'
p425
sg11
S'text/html'
p426
sg13
Nsg14
Vsubmitted by <a href="http://www.reddit.com/user/4n6me"> 4n6me </a> to <a href="http://www.reddit.com/r/bestof/"> bestof</a> <br /> <a href="http://www.reddit.com/r/AskReddit/comments/vz13z/dads_of_reddit_how_has_having_daughters_changed/c58v2p4">[link]</a> <a href="http://www.reddit.com/r/bestof/comments/vz903/one_dads_definition_of_what_being_a_man_means/">[344 comments]</a>
p427
stRp428
sg67
g427
sg68
I00
sS'title_detail'
p429
g1
(g2
g3
(dp430
g9
S'http://www.reddit.com/.rss'
p431
sg11
S'text/plain'
p432
sg13
Nsg14
g422
stRp433
sg30
g420
sg74
(lp434
g15
aV*
asg76
Vhttp://www.reddit.com/r/bestof/comments/vz903/one_dads_definition_of_what_being_a_man_means/
p435
stRp436
ag1
(g2
g3
(dp437
g50
VTue, 03 Jul 2012 18:24:25 +0000
p438
sg52
g53
((I2012
I7
I3
I18
I24
I25
I1
I185
I0
t(dtRp439
sg18
(lp440
g1
(g2
g3
(dp441
g21
Vhttp://www.reddit.com/r/AdviceAnimals/comments/vznvo/scumbag_disney_world/
p442
sg11
g23
sg24
g25
stRp443
asg29
VScumbag Disney World
p444
sS'summary_detail'
p445
g1
(g2
g3
(dp446
g9
S'http://www.reddit.com/.rss'
p447
sg11
S'text/html'
p448
sg13
Nsg14
V<table> <tr><td> <a href="http://www.reddit.com/r/AdviceAnimals/comments/vznvo/scumbag_disney_world/"><img src="http://b.thumbs.redditmedia.com/J6r4uMLKNowI-yEa.jpg" alt="Scumbag Disney World " title="Scumbag Disney World " /></a> </td><td> submitted by <a href="http://www.reddit.com/user/ShermanatorLegend"> ShermanatorLegend </a> to <a href="http://www.reddit.com/r/AdviceAnimals/"> AdviceAnimals</a> <br /> <a href="http://www.quickmeme.com/meme/3pygp8/">[link]</a> <a href="http://www.reddit.com/r/AdviceAnimals/comments/vznvo/scumbag_disney_world/">[50 comments]</a> </td></tr></table>
p449
stRp450
sS'media_thumbnail'
p451
V
sg67
g449
sg68
I00
sS'title_detail'
p452
g1
(g2
g3
(dp453
g9
S'http://www.reddit.com/.rss'
p454
sg11
S'text/plain'
p455
sg13
Nsg14
g444
stRp456
sg30
g442
sg74
(lp457
g15
aV*
asg76
Vhttp://www.reddit.com/r/AdviceAnimals/comments/vznvo/scumbag_disney_world/
p458
stRp459
ag1
(g2
g3
(dp460
g50
VTue, 03 Jul 2012 17:11:52 +0000
p461
sg52
g53
((I2012
I7
I3
I17
I11
I52
I1
I185
I0
t(dtRp462
sg18
(lp463
g1
(g2
g3
(dp464
g21
Vhttp://www.reddit.com/r/AdviceAnimals/comments/vzj85/i_hate_this/
p465
sg11
g23
sg24
g25
stRp466
asg29
VI hate this...
p467
sS'summary_detail'
p468
g1
(g2
g3
(dp469
g9
S'http://www.reddit.com/.rss'
p470
sg11
S'text/html'
p471
sg13
Nsg14
V<table> <tr><td> <a href="http://www.reddit.com/r/AdviceAnimals/comments/vzj85/i_hate_this/"><img src="http://d.thumbs.redditmedia.com/wbOpvZWn6AY__G0E.jpg" alt="I hate this..." title="I hate this..." /></a> </td><td> submitted by <a href="http://www.reddit.com/user/sortofagamedev"> sortofagamedev </a> to <a href="http://www.reddit.com/r/AdviceAnimals/"> AdviceAnimals</a> <br /> <a href="http://qkme.me/3pyfll">[link]</a> <a href="http://www.reddit.com/r/AdviceAnimals/comments/vzj85/i_hate_this/">[232 comments]</a> </td></tr></table>
p472
stRp473
sS'media_thumbnail'
p474
V
sg67
g472
sg68
I00
sS'title_detail'
p475
g1
(g2
g3
(dp476
g9
S'http://www.reddit.com/.rss'
p477
sg11
S'text/plain'
p478
sg13
Nsg14
g467
stRp479
sg30
g465
sg74
(lp480
g15
aV*
asg76
Vhttp://www.reddit.com/r/AdviceAnimals/comments/vzj85/i_hate_this/
p481
stRp482
ag1
(g2
g3
(dp483
g50
VTue, 03 Jul 2012 17:01:55 +0000
p484
sg52
g53
((I2012
I7
I3
I17
I1
I55
I1
I185
I0
t(dtRp485
sg18
(lp486
g1
(g2
g3
(dp487
g21
Vhttp://www.reddit.com/r/AdviceAnimals/comments/vzij1/weve_all_heard_of_first_world_problems_i_give/
p488
sg11
g23
sg24
g25
stRp489
asg29
VWe've all heard of First World Problems. I give you...1990s Problems
p490
sS'summary_detail'
p491
g1
(g2
g3
(dp492
g9
S'http://www.reddit.com/.rss'
p493
sg11
S'text/html'
p494
sg13
Nsg14
V<table> <tr><td> <a href="http://www.reddit.com/r/AdviceAnimals/comments/vzij1/weve_all_heard_of_first_world_problems_i_give/"><img src="http://d.thumbs.redditmedia.com/-1HYwH0IDcLXoWyi.jpg" alt="We've all heard of First World Problems. I give you...1990s Problems" title="We've all heard of First World Problems. I give you...1990s Problems" /></a> </td><td> submitted by <a href="http://www.reddit.com/user/simonowens"> simonowens </a> to <a href="http://www.reddit.com/r/AdviceAnimals/"> AdviceAnimals</a> <br /> <a href="http://www.quickmeme.com/meme/3pyfg9/">[link]</a> <a href="http://www.reddit.com/r/AdviceAnimals/comments/vzij1/weve_all_heard_of_first_world_problems_i_give/">[481 comments]</a> </td></tr></table>
p495
stRp496
sS'media_thumbnail'
p497
V
sg67
g495
sg68
I00
sS'title_detail'
p498
g1
(g2
g3
(dp499
g9
S'http://www.reddit.com/.rss'
p500
sg11
S'text/plain'
p501
sg13
Nsg14
g490
stRp502
sg30
g488
sg74
(lp503
g15
aV*
asg76
Vhttp://www.reddit.com/r/AdviceAnimals/comments/vzij1/weve_all_heard_of_first_world_problems_i_give/
p504
stRp505
ag1
(g2
g3
(dp506
g50
VTue, 03 Jul 2012 17:38:40 +0000
p507
sg52
g53
((I2012
I7
I3
I17
I38
I40
I1
I185
I0
t(dtRp508
sg18
(lp509
g1
(g2
g3
(dp510
g21
Vhttp://www.reddit.com/r/AdviceAnimals/comments/vzky3/it_hit_me_like_a_ton_a_bricks/
p511
sg11
g23
sg24
g25
stRp512
asg29
VIt hit me like a ton a bricks
p513
sS'summary_detail'
p514
g1
(g2
g3
(dp515
g9
S'http://www.reddit.com/.rss'
p516
sg11
S'text/html'
p517
sg13
Nsg14
Vsubmitted by <a href="http://www.reddit.com/user/Flailwielder"> Flailwielder </a> to <a href="http://www.reddit.com/r/AdviceAnimals/"> AdviceAnimals</a> <br /> <a href="http://qkme.me/3pyfxi">[link]</a> <a href="http://www.reddit.com/r/AdviceAnimals/comments/vzky3/it_hit_me_like_a_ton_a_bricks/">[64 comments]</a>
p518
stRp519
sg67
g518
sg68
I00
sS'title_detail'
p520
g1
(g2
g3
(dp521
g9
S'http://www.reddit.com/.rss'
p522
sg11
S'text/plain'
p523
sg13
Nsg14
g513
stRp524
sg30
g511
sg74
(lp525
g15
aV*
asg76
Vhttp://www.reddit.com/r/AdviceAnimals/comments/vzky3/it_hit_me_like_a_ton_a_bricks/
p526
stRp527
ag1
(g2
g3
(dp528
g50
VTue, 03 Jul 2012 17:53:23 +0000
p529
sg52
g53
((I2012
I7
I3
I17
I53
I23
I1
I185
I0
t(dtRp530
sg18
(lp531
g1
(g2
g3
(dp532
g21
Vhttp://www.reddit.com/r/WTF/comments/vzlvn/cocaineinduced_palatal_perforation/
p533
sg11
g23
sg24
g25
stRp534
asg29
VCocaine-Induced Palatal Perforation.
p535
sS'summary_detail'
p536
g1
(g2
g3
(dp537
g9
S'http://www.reddit.com/.rss'
p538
sg11
S'text/html'
p539
sg13
Nsg14
Vsubmitted by <a href="http://www.reddit.com/user/bandwagontroll"> bandwagontroll </a> to <a href="http://www.reddit.com/r/WTF/"> WTF</a> <br /> <a href="http://imgur.com/f9GJY">[link]</a> <a href="http://www.reddit.com/r/WTF/comments/vzlvn/cocaineinduced_palatal_perforation/">[1095 comments]</a>
p540
stRp541
sg67
g540
sg68
I00
sS'title_detail'
p542
g1
(g2
g3
(dp543
g9
S'http://www.reddit.com/.rss'
p544
sg11
S'text/plain'
p545
sg13
Nsg14
g535
stRp546
sg30
g533
sg74
(lp547
g15
aV*
asg76
Vhttp://www.reddit.com/r/WTF/comments/vzlvn/cocaineinduced_palatal_perforation/
p548
stRp549
ag1
(g2
g3
(dp550
g50
VTue, 03 Jul 2012 20:38:27 +0000
p551
sg52
g53
((I2012
I7
I3
I20
I38
I27
I1
I185
I0
t(dtRp552
sg18
(lp553
g1
(g2
g3
(dp554
g21
Vhttp://www.reddit.com/r/WTF/comments/vzwgb/my_friend_just_moved_to_texas_and_found_this_in/
p555
sg11
g23
sg24
g25
stRp556
asg29
VMy friend just moved to Texas and found this in her house...
p557
sS'summary_detail'
p558
g1
(g2
g3
(dp559
g9
S'http://www.reddit.com/.rss'
p560
sg11
S'text/html'
p561
sg13
Nsg14
Vsubmitted by <a href="http://www.reddit.com/user/crimson_irises713"> crimson_irises713 </a> to <a href="http://www.reddit.com/r/WTF/"> WTF</a> <br /> <a href="http://i.imgur.com/hgFEE.jpg">[link]</a> <a href="http://www.reddit.com/r/WTF/comments/vzwgb/my_friend_just_moved_to_texas_and_found_this_in/">[460 comments]</a>
p562
stRp563
sg67
g562
sg68
I00
sS'title_detail'
p564
g1
(g2
g3
(dp565
g9
S'http://www.reddit.com/.rss'
p566
sg11
S'text/plain'
p567
sg13
Nsg14
g557
stRp568
sg30
g555
sg74
(lp569
g15
aV*
asg76
Vhttp://www.reddit.com/r/WTF/comments/vzwgb/my_friend_just_moved_to_texas_and_found_this_in/
p570
stRp571
ag1
(g2
g3
(dp572
g50
VTue, 03 Jul 2012 17:19:46 +0000
p573
sg52
g53
((I2012
I7
I3
I17
I19
I46
I1
I185
I0
t(dtRp574
sg18
(lp575
g1
(g2
g3
(dp576
g21
Vhttp://www.reddit.com/r/AdviceAnimals/comments/vzjr5/first_world_problems_cat/
p577
sg11
g23
sg24
g25
stRp578
asg29
VFirst World Problems Cat
p579
sS'summary_detail'
p580
g1
(g2
g3
(dp581
g9
S'http://www.reddit.com/.rss'
p582
sg11
S'text/html'
p583
sg13
Nsg14
V<table> <tr><td> <a href="http://www.reddit.com/r/AdviceAnimals/comments/vzjr5/first_world_problems_cat/"><img src="http://f.thumbs.redditmedia.com/gNVPdjImO17stP-S.jpg" alt="First World Problems Cat" title="First World Problems Cat" /></a> </td><td> submitted by <a href="http://www.reddit.com/user/sodafat"> sodafat </a> to <a href="http://www.reddit.com/r/AdviceAnimals/"> AdviceAnimals</a> <br /> <a href="http://www.quickmeme.com/meme/3pyfoz/">[link]</a> <a href="http://www.reddit.com/r/AdviceAnimals/comments/vzjr5/first_world_problems_cat/">[27 comments]</a> </td></tr></table>
p584
stRp585
sS'media_thumbnail'
p586
V
sg67
g584
sg68
I00
sS'title_detail'
p587
g1
(g2
g3
(dp588
g9
S'http://www.reddit.com/.rss'
p589
sg11
S'text/plain'
p590
sg13
Nsg14
g579
stRp591
sg30
g577
sg74
(lp592
g15
aV*
asg76
Vhttp://www.reddit.com/r/AdviceAnimals/comments/vzjr5/first_world_problems_cat/
p593
stRp594
ag1
(g2
g3
(dp595
g50
VTue, 03 Jul 2012 17:32:12 +0000
p596
sg52
g53
((I2012
I7
I3
I17
I32
I12
I1
I185
I0
t(dtRp597
sg18
(lp598
g1
(g2
g3
(dp599
g21
Vhttp://www.reddit.com/r/funny/comments/vzkju/my_coworker_may_have_stolen_my_prank_karma_but/
p600
sg11
g23
sg24
g25
stRp601
asg29
VMy coworker may have stolen my prank karma but watching her take it down was plenty worth it
p602
sS'summary_detail'
p603
g1
(g2
g3
(dp604
g9
S'http://www.reddit.com/.rss'
p605
sg11
S'text/html'
p606
sg13
Nsg14
Vsubmitted by <a href="http://www.reddit.com/user/NspktrSpacetime"> NspktrSpacetime </a> to <a href="http://www.reddit.com/r/funny/"> funny</a> <br /> <a href="http://imgur.com/sXyMd.jpg">[link]</a> <a href="http://www.reddit.com/r/funny/comments/vzkju/my_coworker_may_have_stolen_my_prank_karma_but/">[823 comments]</a>
p607
stRp608
sg67
g607
sg68
I00
sS'title_detail'
p609
g1
(g2
g3
(dp610
g9
S'http://www.reddit.com/.rss'
p611
sg11
S'text/plain'
p612
sg13
Nsg14
g602
stRp613
sg30
g600
sg74
(lp614
g15
aV*
asg76
Vhttp://www.reddit.com/r/funny/comments/vzkju/my_coworker_may_have_stolen_my_prank_karma_but/
p615
stRp616
asS'canto_update'
p617
F1341363348.2766111
sS'headers'
p618
(dp619
S'content-length'
p620
S'29256'
p621
sS'set-cookie'
p622
S'reddit_first=%7B%22firsttime%22%3A%20%22first%22%7D; Domain=reddit.com; expires=Thu, 31 Dec 2037 23:59:59 GMT; Path=/'
p623
sS'vary'
p624
S'Accept-Encoding'
p625
sS'server'
p626
S"'; DROP TABLE servertypes; --"
p627
sS'connection'
p628
S'close'
p629
sS'date'
p630
S'Wed, 04 Jul 2012 00:55:47 GMT'
p631
sS'content-type'
p632
S'text/xml; charset=UTF-8'
p633
ssS'version'
p634
S'rss20'
p635
sg74
(lp636
sg21
S'http://www.reddit.com/.rss'
p637
sS'namespaces'
p638
(dp639
Vmedia
p640
Vhttp://search.yahoo.com/mrss/
p641
sS'dc'
p642
Vhttp://purl.org/dc/elements/1.1/
p643
ssS'canto_version'
p644
(I0
I7
I10
tp645
stRp646
.