ccopy_reg
_reconstructor
p1
(ccanto.feedparser_builtin
FeedParserDict
p2
c__builtin__
dict
p3
(dp4
S'feed'
p5
g1
(g2
g3
(dp6
S'updated'
p7
V2012-07-04T00:47:18+00:00
p8
sS'subtitle'
p9
VNews for nerds, stuff that matters
p10
sS'updated_parsed'
p11
ctime
struct_time
p12
((I2012
I7
I4
I0
I47
I18
I2
I186
I0
t(dtRp13
sS'links'
p14
(lp15
g1
(g2
g3
(dp16
S'href'
p17
Vhttp://slashdot.org/
p18
sS'type'
p19
S'text/html'
p20
sS'rel'
p21
S'alternate'
p22
stRp23
ag1
(g2
g3
(dp24
S'href'
p25
Vhttp://rss.slashdot.org/Slashdot/slashdot
p26
sS'type'
p27
Vapplication/rdf+xml
p28
sS'rel'
p29
Vself
p30
stRp31
ag1
(g2
g3
(dp32
S'href'
p33
Vhttp://pubsubhubbub.appspot.com/
p34
sg19
g20
sS'rel'
p35
Vhub
p36
stRp37
ag1
(g2
g3
(dp38
g19
g20
sg21
g22
stRp39
ag1
(g2
g3
(dp40
g19
g20
sg21
g22
stRp41
asS'tags'
p42
(lp43
g1
(g2
g3
(dp44
S'term'
p45
VTechnology
p46
sS'scheme'
p47
NsS'label'
p48
NstRp49
asS'image'
p50
g1
(g2
g3
(dp51
g17
Vhttp://a.fsdn.com/sd/topics/topicslashdot.gif
p52
sS'link'
p53
Vhttp://slashdot.org/
p54
sS'title'
p55
VSlashdot
p56
stRp57
sS'rdf_seq'
p58
V
sS'feedburner_info'
p59
V
sg53
g18
sS'entries'
p60
V
sS'rights_detail'
p61
g1
(g2
g3
(dp62
S'base'
p63
S'http://rss.slashdot.org/slashdot/Slashdot'
p64
sg19
S'text/plain'
p65
sS'language'
p66
NsS'value'
p67
VCopyright 1997-2012, Geeknet, Inc.  All Rights Reserved.
p68
stRp69
sS'author_detail'
p70
g1
(g2
g3
(dp71
S'name'
p72
V
sS'email'
p73
Vhelp@slashdot.org
p74
stRp75
sS'sy_updatebase'
p76
V1970-01-01T00:00+00:00
p77
sS'publisher'
p78
VGeeknet, Inc.
p79
sg66
Ven-us
p80
sg55
VSlashdot
p81
sS'rights'
p82
g68
sS'rdf_li'
p83
V
sS'subtitle_detail'
p84
g1
(g2
g3
(dp85
g63
S'http://rss.slashdot.org/slashdot/Slashdot'
p86
sg19
S'text/html'
p87
sg66
Nsg67
g10
stRp88
sS'title_detail'
p89
g1
(g2
g3
(dp90
g63
S'http://rss.slashdot.org/slashdot/Slashdot'
p91
sg19
S'text/plain'
p92
sg66
Nsg67
g81
stRp93
sS'author'
p94
g74
sS'sy_updateperiod'
p95
Vhourly
p96
sS'sy_updatefrequency'
p97
V1
sS'textinput'
p98
g1
(g2
g3
(dp99
g9
VSearch Slashdot stories
p100
sg53
Vhttp://slashdot.org/search.pl
p101
sg72
Vquery
p102
sg55
VSearch Slashdot
p103
stRp104
stRp105
sS'status'
p106
I200
sg7
g12
((I2012
I7
I4
I0
I51
I35
I2
I186
I0
t(dtRp107
sS'encoding'
p108
S'ISO-8859-1'
p109
sS'bozo'
p110
I0
sg60
(lp111
g1
(g2
g3
(dp112
S'summary_detail'
p113
g1
(g2
g3
(dp114
g63
S'http://rss.slashdot.org/slashdot/Slashdot'
p115
sg19
S'text/html'
p116
sg66
Nsg67
V<p><a href="http://feedads.g.doubleclick.net/~at/hcAnEWYt9Pa78F16BuSl9uas3qk/0/da"><img src="http://feedads.g.doubleclick.net/~at/hcAnEWYt9Pa78F16BuSl9uas3qk/0/di" border="0" ismap="true" /></a><br />\u000a<a href="http://feedads.g.doubleclick.net/~at/hcAnEWYt9Pa78F16BuSl9uas3qk/1/da"><img src="http://feedads.g.doubleclick.net/~at/hcAnEWYt9Pa78F16BuSl9uas3qk/1/di" border="0" ismap="true" /></a></p>Billly Gates writes "Bill Gates, in an interview with Charlie Rose last night, defended the move to Metro-ize Windows 8 and focus solely on the tablet experience (here's the video &mdash; tablet talk starts around 28 minutes in). When asked how traditional PC users will react, he explained that the world is moving into tablets, and a new PC needs to have both experiences integrated together. Also, he defended the move to build the Surface while charging his competitors a bundle for Windows 8. He says users have access to both experiences, whether it is a signature Microsoft one, or from an OEM. Is the a sign the desktop is dead or dying?"\u000aGates stopped short of saying the traditional PC is dead, but dodged direct questions about its future. This is a big change to the stance he has advocated in years past.<p><div class="share_submission">\u000a<a class="slashpop" href="http://twitter.com/home?status=Bill+Gates%3A+the+Traditional+PC+Is+Changing%3A+http%3A%2F%2Fbit.ly%2FNvfceD"><img src="http://a.fsdn.com/sd/twitter_icon_large.png" /></a>\u000a<a class="slashpop" href="http://www.facebook.com/sharer.php?u=http%3A%2F%2Ftech.slashdot.org%2Fstory%2F12%2F07%2F03%2F2227234%2Fbill-gates-the-traditional-pc-is-changing%3Futm_source%3Dslashdot%26utm_medium%3Dfacebook"><img src="http://a.fsdn.com/sd/facebook_icon_large.png" /></a>\u000a\u000a<a class="nobg" href="http://plus.google.com/share?url=http://tech.slashdot.org/story/12/07/03/2227234/bill-gates-the-traditional-pc-is-changing?utm_source=slashdot&utm_medium=googleplus"><img src="http://www.gstatic.com/images/icons/gplus-16.png" alt="Share on Google+" /></a>                                                                                                                                                                              \u000a\u000a\u000a\u000a</div></p><p><a href="http://tech.slashdot.org/story/12/07/03/2227234/bill-gates-the-traditional-pc-is-changing?utm_source=rss1.0moreanon&utm_medium=feed">Read more of this story</a> at Slashdot.</p><img src="http://feeds.feedburner.com/~r/Slashdot/slashdot/~4/r9v4QehJ-jc" height="1" width="1" />
p117
stRp118
sg11
g12
((I2012
I7
I3
I23
I57
I0
I1
I185
I0
t(dtRp119
sg14
(lp120
g1
(g2
g3
(dp121
g17
Vhttp://rss.slashdot.org/~r/Slashdot/slashdot/~3/r9v4QehJ-jc/bill-gates-the-traditional-pc-is-changing
p122
sg19
g20
sg21
g22
stRp123
asg42
(lp124
g1
(g2
g3
(dp125
g45
Vhandheld
p126
sg47
Nsg48
NstRp127
asS'slash_department'
p128
Vlong-live-the-pc
p129
sS'feedburner_origlink'
p130
Vhttp://tech.slashdot.org/story/12/07/03/2227234/bill-gates-the-traditional-pc-is-changing?utm_source=rss1.0mainlinkanon&utm_medium=feed
p131
sg7
V2012-07-03T23:57:00+00:00
p132
sS'slash_section'
p133
Vtechnology
p134
sg53
g122
sS'slash_hit_parade'
p135
V80,77,43,28,8,0,0
p136
sS'id'
p137
Vhttp://tech.slashdot.org/story/12/07/03/2227234/bill-gates-the-traditional-pc-is-changing?utm_source=rss1.0mainlinkanon&utm_medium=feed
p138
sS'slash_comments'
p139
V80
p140
sg55
VBill Gates: the Traditional PC Is Changing
p141
sg94
VSoulskill
p142
sS'summary'
p143
V<p><a href="http://feedads.g.doubleclick.net/~at/hcAnEWYt9Pa78F16BuSl9uas3qk/0/da"><img src="http://feedads.g.doubleclick.net/~at/hcAnEWYt9Pa78F16BuSl9uas3qk/0/di" border="0" ismap="true" /></a><br />\u000a<a href="http://feedads.g.doubleclick.net/~at/hcAnEWYt9Pa78F16BuSl9uas3qk/1/da"><img src="http://feedads.g.doubleclick.net/~at/hcAnEWYt9Pa78F16BuSl9uas3qk/1/di" border="0" ismap="true" /></a></p>Billly Gates writes "Bill Gates, in an interview with Charlie Rose last night, defended the move to Metro-ize Windows 8 and focus solely on the tablet experience (here's the video &mdash; tablet talk starts around 28 minutes in). When asked how traditional PC users will react, he explained that the world is moving into tablets, and a new PC needs to have both experiences integrated together. Also, he defended the move to build the Surface while charging his competitors a bundle for Windows 8. He says users have access to both experiences, whether it is a signature Microsoft one, or from an OEM. Is the a sign the desktop is dead or dying?"\u000aGates stopped short of saying the traditional PC is dead, but dodged direct questions about its future. This is a big change to the stance he has advocated in years past.<p><div class="share_submission">\u000a<a class="slashpop" href="http://twitter.com/home?status=Bill+Gates\u005c%3A+the+Traditional+PC+Is+Changing\u005c%3A+http\u005c%3A\u005c%2F\u005c%2Fbit.ly\u005c%2FNvfceD"><img src="http://a.fsdn.com/sd/twitter_icon_large.png" /></a>\u000a<a class="slashpop" href="http://www.facebook.com/sharer.php?u=http\u005c%3A\u005c%2F\u005c%2Ftech.slashdot.org\u005c%2Fstory\u005c%2F12\u005c%2F07\u005c%2F03\u005c%2F2227234\u005c%2Fbill-gates-the-traditional-pc-is-changing\u005c%3Futm_source\u005c%3Dslashdot\u005c%26utm_medium\u005c%3Dfacebook"><img src="http://a.fsdn.com/sd/facebook_icon_large.png" /></a>\u000a\u000a<a class="nobg" href="http://plus.google.com/share?url=http://tech.slashdot.org/story/12/07/03/2227234/bill-gates-the-traditional-pc-is-changing?utm_source=slashdot&utm_medium=googleplus"><img src="http://www.gstatic.com/images/icons/gplus-16.png" alt="Share on Google+" /></a>                                                                                                                                                                              \u000a\u000a\u000a\u000a</div></p><p><a href="http://tech.slashdot.org/story/12/07/03/2227234/bill-gates-the-traditional-pc-is-changing?utm_source=rss1.0moreanon&utm_medium=feed">Read more of this story</a> at Slashdot.</p><img src="http://feeds.feedburner.com/~r/Slashdot/slashdot/~4/r9v4QehJ-jc" height="1" width="1" />
p144
sS'title_detail'
p145
g1
(g2
g3
(dp146
g63
S'http://rss.slashdot.org/slashdot/Slashdot'
p147
sg19
S'text/plain'
p148
sg66
Nsg67
g141
stRp149
sS'canto_state'
p150
(lp151
g81
aV*
astRp152
ag1
(g2
g3
(dp153
S'summary_detail'
p154
g1
(g2
g3
(dp155
g63
S'http://rss.slashdot.org/slashdot/Slashdot'
p156
sg19
S'text/html'
p157
sg66
Nsg67
V<p><a href="http://feedads.g.doubleclick.net/~at/qf0QPTu05r-5sgzrXAJ5l1AACnM/0/da"><img src="http://feedads.g.doubleclick.net/~at/qf0QPTu05r-5sgzrXAJ5l1AACnM/0/di" border="0" ismap="true" /></a><br />\u000a<a href="http://feedads.g.doubleclick.net/~at/qf0QPTu05r-5sgzrXAJ5l1AACnM/1/da"><img src="http://feedads.g.doubleclick.net/~at/qf0QPTu05r-5sgzrXAJ5l1AACnM/1/di" border="0" ismap="true" /></a></p>New submitter opusman writes "According to an Australian space analyst, SETI is running out of money. Despite needing only $2 million a year, a relatively small amount in space industry terms, they are facing a financial crisis. From the article: 'Getting on board a spacecraft is tricky. There are few places for professional astronauts. Even when Richard Branson and a group of other visionaries makes space tourism more affordable, it will still cost huge sums to fly. But getting a foothold in the greatest quest of all can be done for just a few tens of donated dollars. Which is why it beggars belief that the SETI quest is on its knees.'"<p><div class="share_submission">\u000a<a class="slashpop" href="http://twitter.com/home?status=SETI+Running+Out+of+Money%3A+http%3A%2F%2Fbit.ly%2FN7hTGL"><img src="http://a.fsdn.com/sd/twitter_icon_large.png" /></a>\u000a<a class="slashpop" href="http://www.facebook.com/sharer.php?u=http%3A%2F%2Fscience.slashdot.org%2Fstory%2F12%2F07%2F03%2F220220%2Fseti-running-out-of-money%3Futm_source%3Dslashdot%26utm_medium%3Dfacebook"><img src="http://a.fsdn.com/sd/facebook_icon_large.png" /></a>\u000a\u000a<a class="nobg" href="http://plus.google.com/share?url=http://science.slashdot.org/story/12/07/03/220220/seti-running-out-of-money?utm_source=slashdot&utm_medium=googleplus"><img src="http://www.gstatic.com/images/icons/gplus-16.png" alt="Share on Google+" /></a>                                                                                                                                                                              \u000a\u000a\u000a\u000a</div></p><p><a href="http://science.slashdot.org/story/12/07/03/220220/seti-running-out-of-money?utm_source=rss1.0moreanon&utm_medium=feed">Read more of this story</a> at Slashdot.</p><img src="http://feeds.feedburner.com/~r/Slashdot/slashdot/~4/jwSf4s6ra5U" height="1" width="1" />
p158
stRp159
sg11
g12
((I2012
I7
I3
I23
I13
I0
I1
I185
I0
t(dtRp160
sg14
(lp161
g1
(g2
g3
(dp162
g17
Vhttp://rss.slashdot.org/~r/Slashdot/slashdot/~3/jwSf4s6ra5U/seti-running-out-of-money
p163
sg19
g20
sg21
g22
stRp164
asg42
(lp165
g1
(g2
g3
(dp166
g45
Vspace
p167
sg47
Nsg48
NstRp168
asS'slash_department'
p169
Vno-worries-we-still-have-sigourney-weaver
p170
sS'feedburner_origlink'
p171
Vhttp://science.slashdot.org/story/12/07/03/220220/seti-running-out-of-money?utm_source=rss1.0mainlinkanon&utm_medium=feed
p172
sg7
V2012-07-03T23:13:00+00:00
p173
sS'slash_section'
p174
Vscience
p175
sg53
g163
sS'slash_hit_parade'
p176
V76,71,52,43,13,6,2
p177
sg137
Vhttp://science.slashdot.org/story/12/07/03/220220/seti-running-out-of-money?utm_source=rss1.0mainlinkanon&utm_medium=feed
p178
sS'slash_comments'
p179
V76
p180
sg55
VSETI Running Out of Money
p181
sg94
VSoulskill
p182
sg143
V<p><a href="http://feedads.g.doubleclick.net/~at/qf0QPTu05r-5sgzrXAJ5l1AACnM/0/da"><img src="http://feedads.g.doubleclick.net/~at/qf0QPTu05r-5sgzrXAJ5l1AACnM/0/di" border="0" ismap="true" /></a><br />\u000a<a href="http://feedads.g.doubleclick.net/~at/qf0QPTu05r-5sgzrXAJ5l1AACnM/1/da"><img src="http://feedads.g.doubleclick.net/~at/qf0QPTu05r-5sgzrXAJ5l1AACnM/1/di" border="0" ismap="true" /></a></p>New submitter opusman writes "According to an Australian space analyst, SETI is running out of money. Despite needing only $2 million a year, a relatively small amount in space industry terms, they are facing a financial crisis. From the article: 'Getting on board a spacecraft is tricky. There are few places for professional astronauts. Even when Richard Branson and a group of other visionaries makes space tourism more affordable, it will still cost huge sums to fly. But getting a foothold in the greatest quest of all can be done for just a few tens of donated dollars. Which is why it beggars belief that the SETI quest is on its knees.'"<p><div class="share_submission">\u000a<a class="slashpop" href="http://twitter.com/home?status=SETI+Running+Out+of+Money\u005c%3A+http\u005c%3A\u005c%2F\u005c%2Fbit.ly\u005c%2FN7hTGL"><img src="http://a.fsdn.com/sd/twitter_icon_large.png" /></a>\u000a<a class="slashpop" href="http://www.facebook.com/sharer.php?u=http\u005c%3A\u005c%2F\u005c%2Fscience.slashdot.org\u005c%2Fstory\u005c%2F12\u005c%2F07\u005c%2F03\u005c%2F220220\u005c%2Fseti-running-out-of-money\u005c%3Futm_source\u005c%3Dslashdot\u005c%26utm_medium\u005c%3Dfacebook"><img src="http://a.fsdn.com/sd/facebook_icon_large.png" /></a>\u000a\u000a<a class="nobg" href="http://plus.google.com/share?url=http://science.slashdot.org/story/12/07/03/220220/seti-running-out-of-money?utm_source=slashdot&utm_medium=googleplus"><img src="http://www.gstatic.com/images/icons/gplus-16.png" alt="Share on Google+" /></a>                                                                                                                                                                              \u000a\u000a\u000a\u000a</div></p><p><a href="http://science.slashdot.org/story/12/07/03/220220/seti-running-out-of-money?utm_source=rss1.0moreanon&utm_medium=feed">Read more of this story</a> at Slashdot.</p><img src="http://feeds.feedburner.com/~r/Slashdot/slashdot/~4/jwSf4s6ra5U" height="1" width="1" />
p183
sS'title_detail'
p184
g1
(g2
g3
(dp185
g63
S'http://rss.slashdot.org/slashdot/Slashdot'
p186
sg19
S'text/plain'
p187
sg66
Nsg67
g181
stRp188
sg150
(lp189
g81
aV*
astRp190
ag1
(g2
g3
(dp191
S'summary_detail'
p192
g1
(g2
g3
(dp193
g63
S'http://rss.slashdot.org/slashdot/Slashdot'
p194
sg19
S'text/html'
p195
sg66
Nsg67
V<p><a href="http://feedads.g.doubleclick.net/~at/iXdZI9NFjPDnxtb0ZMlVtI9Geww/0/da"><img src="http://feedads.g.doubleclick.net/~at/iXdZI9NFjPDnxtb0ZMlVtI9Geww/0/di" border="0" ismap="true" /></a><br />\u000a<a href="http://feedads.g.doubleclick.net/~at/iXdZI9NFjPDnxtb0ZMlVtI9Geww/1/da"><img src="http://feedads.g.doubleclick.net/~at/iXdZI9NFjPDnxtb0ZMlVtI9Geww/1/di" border="0" ismap="true" /></a></p>judgecorp writes "Google has published a report, written by the Performing Rights Society and BAE Detica, which says the way to fight piracy is not to chase the sharers, but to cut off the money in the system. 'Some 86% of advertising on the pirate sites surveyed by Detica comes from networks that have failed to sign up with the UK&rsquo;s self-regulatory bodies or commit to strong codes of conduct. More than two thirds of the sites that rely on subscriptions or payments display well-known credit card logos. Online advertisers should be encouraged to sign up to self-regulatory codes of conduct. Credit card and online payment facilities, the pirate&rsquo;s oxygen supply, must be blocked.'But is Google absolutely sure it isn't doing that with AdSense?"<p><div class="share_submission">\u000a<a class="slashpop" href="http://twitter.com/home?status=Google+Proposes+Fighting+Piracy+By+Blocking+Ad+Money%3A+http%3A%2F%2Fbit.ly%2FM4uisj"><img src="http://a.fsdn.com/sd/twitter_icon_large.png" /></a>\u000a<a class="slashpop" href="http://www.facebook.com/sharer.php?u=http%3A%2F%2Fyro.slashdot.org%2Fstory%2F12%2F07%2F03%2F2155228%2Fgoogle-proposes-fighting-piracy-by-blocking-ad-money%3Futm_source%3Dslashdot%26utm_medium%3Dfacebook"><img src="http://a.fsdn.com/sd/facebook_icon_large.png" /></a>\u000a\u000a<a class="nobg" href="http://plus.google.com/share?url=http://yro.slashdot.org/story/12/07/03/2155228/google-proposes-fighting-piracy-by-blocking-ad-money?utm_source=slashdot&utm_medium=googleplus"><img src="http://www.gstatic.com/images/icons/gplus-16.png" alt="Share on Google+" /></a>                                                                                                                                                                              \u000a\u000a\u000a\u000a</div></p><p><a href="http://yro.slashdot.org/story/12/07/03/2155228/google-proposes-fighting-piracy-by-blocking-ad-money?utm_source=rss1.0moreanon&utm_medium=feed">Read more of this story</a> at Slashdot.</p><img src="http://feeds.feedburner.com/~r/Slashdot/slashdot/~4/OG99NRNzn_4" height="1" width="1" />
p196
stRp197
sg11
g12
((I2012
I7
I3
I22
I28
I0
I1
I185
I0
t(dtRp198
sg14
(lp199
g1
(g2
g3
(dp200
g17
Vhttp://rss.slashdot.org/~r/Slashdot/slashdot/~3/OG99NRNzn_4/google-proposes-fighting-piracy-by-blocking-ad-money
p201
sg19
g20
sg21
g22
stRp202
asg42
(lp203
g1
(g2
g3
(dp204
g45
Vpiracy
p205
sg47
Nsg48
NstRp206
asS'slash_department'
p207
Vgeorge-carlin-would-approve
p208
sS'feedburner_origlink'
p209
Vhttp://yro.slashdot.org/story/12/07/03/2155228/google-proposes-fighting-piracy-by-blocking-ad-money?utm_source=rss1.0mainlinkanon&utm_medium=feed
p210
sg7
V2012-07-03T22:28:00+00:00
p211
sS'slash_section'
p212
Vyro
p213
sg53
g201
sS'slash_hit_parade'
p214
V86,85,59,46,13,4,4
p215
sg137
Vhttp://yro.slashdot.org/story/12/07/03/2155228/google-proposes-fighting-piracy-by-blocking-ad-money?utm_source=rss1.0mainlinkanon&utm_medium=feed
p216
sS'slash_comments'
p217
V86
p218
sg55
VGoogle Proposes Fighting Piracy By Blocking Ad Money
p219
sg94
VSoulskill
p220
sg143
V<p><a href="http://feedads.g.doubleclick.net/~at/iXdZI9NFjPDnxtb0ZMlVtI9Geww/0/da"><img src="http://feedads.g.doubleclick.net/~at/iXdZI9NFjPDnxtb0ZMlVtI9Geww/0/di" border="0" ismap="true" /></a><br />\u000a<a href="http://feedads.g.doubleclick.net/~at/iXdZI9NFjPDnxtb0ZMlVtI9Geww/1/da"><img src="http://feedads.g.doubleclick.net/~at/iXdZI9NFjPDnxtb0ZMlVtI9Geww/1/di" border="0" ismap="true" /></a></p>judgecorp writes "Google has published a report, written by the Performing Rights Society and BAE Detica, which says the way to fight piracy is not to chase the sharers, but to cut off the money in the system. 'Some 86\u005c% of advertising on the pirate sites surveyed by Detica comes from networks that have failed to sign up with the UK&rsquo;s self-regulatory bodies or commit to strong codes of conduct. More than two thirds of the sites that rely on subscriptions or payments display well-known credit card logos. Online advertisers should be encouraged to sign up to self-regulatory codes of conduct. Credit card and online payment facilities, the pirate&rsquo;s oxygen supply, must be blocked.'But is Google absolutely sure it isn't doing that with AdSense?"<p><div class="share_submission">\u000a<a class="slashpop" href="http://twitter.com/home?status=Google+Proposes+Fighting+Piracy+By+Blocking+Ad+Money\u005c%3A+http\u005c%3A\u005c%2F\u005c%2Fbit.ly\u005c%2FM4uisj"><img src="http://a.fsdn.com/sd/twitter_icon_large.png" /></a>\u000a<a class="slashpop" href="http://www.facebook.com/sharer.php?u=http\u005c%3A\u005c%2F\u005c%2Fyro.slashdot.org\u005c%2Fstory\u005c%2F12\u005c%2F07\u005c%2F03\u005c%2F2155228\u005c%2Fgoogle-proposes-fighting-piracy-by-blocking-ad-money\u005c%3Futm_source\u005c%3Dslashdot\u005c%26utm_medium\u005c%3Dfacebook"><img src="http://a.fsdn.com/sd/facebook_icon_large.png" /></a>\u000a\u000a<a class="nobg" href="http://plus.google.com/share?url=http://yro.slashdot.org/story/12/07/03/2155228/google-proposes-fighting-piracy-by-blocking-ad-money?utm_source=slashdot&utm_medium=googleplus"><img src="http://www.gstatic.com/images/icons/gplus-16.png" alt="Share on Google+" /></a>                                                                                                                                                                              \u000a\u000a\u000a\u000a</div></p><p><a href="http://yro.slashdot.org/story/12/07/03/2155228/google-proposes-fighting-piracy-by-blocking-ad-money?utm_source=rss1.0moreanon&utm_medium=feed">Read more of this story</a> at Slashdot.</p><img src="http://feeds.feedburner.com/~r/Slashdot/slashdot/~4/OG99NRNzn_4" height="1" width="1" />
p221
sS'title_detail'
p222
g1
(g2
g3
(dp223
g63
S'http://rss.slashdot.org/slashdot/Slashdot'
p224
sg19
S'text/plain'
p225
sg66
Nsg67
g219
stRp226
sg150
(lp227
g81
aV*
astRp228
ag1
(g2
g3
(dp229
S'summary_detail'
p230
g1
(g2
g3
(dp231
g63
S'http://rss.slashdot.org/slashdot/Slashdot'
p232
sg19
S'text/html'
p233
sg66
Nsg67
V<p><a href="http://feedads.g.doubleclick.net/~at/deCXe5euy56RzAQv3vmUt0s2sXQ/0/da"><img src="http://feedads.g.doubleclick.net/~at/deCXe5euy56RzAQv3vmUt0s2sXQ/0/di" border="0" ismap="true" /></a><br />\u000a<a href="http://feedads.g.doubleclick.net/~at/deCXe5euy56RzAQv3vmUt0s2sXQ/1/da"><img src="http://feedads.g.doubleclick.net/~at/deCXe5euy56RzAQv3vmUt0s2sXQ/1/di" border="0" ismap="true" /></a></p>redletterdave writes "Research In Motion is in trouble. The BlackBerry maker has been suffering from an identity crisis for the last six months, which has resulted in mass layoffs, lots of job shuffling, dramatic drop-offs in market share and a quickly decaying portfolio for investors. But not according to Thorsten Heins! The newly-appointed CEO published an op-ed in the Toronto Globe and Mail on Tuesday, and also appeared on a radio program the same morning, to deliver one message: 'There's nothing wrong with the company as it exists right now.'"<p><div class="share_submission">\u000a<a class="slashpop" href="http://twitter.com/home?status=RIM+CEO%3A+'There's+Nothing+Wrong+With+the+Company'%3A+http%3A%2F%2Fbit.ly%2FMRViPc"><img src="http://a.fsdn.com/sd/twitter_icon_large.png" /></a>\u000a<a class="slashpop" href="http://www.facebook.com/sharer.php?u=http%3A%2F%2Fnews.slashdot.org%2Fstory%2F12%2F07%2F03%2F2146201%2Frim-ceo-theres-nothing-wrong-with-the-company%3Futm_source%3Dslashdot%26utm_medium%3Dfacebook"><img src="http://a.fsdn.com/sd/facebook_icon_large.png" /></a>\u000a\u000a<a class="nobg" href="http://plus.google.com/share?url=http://news.slashdot.org/story/12/07/03/2146201/rim-ceo-theres-nothing-wrong-with-the-company?utm_source=slashdot&utm_medium=googleplus"><img src="http://www.gstatic.com/images/icons/gplus-16.png" alt="Share on Google+" /></a>                                                                                                                                                                              \u000a\u000a\u000a\u000a</div></p><p><a href="http://news.slashdot.org/story/12/07/03/2146201/rim-ceo-theres-nothing-wrong-with-the-company?utm_source=rss1.0moreanon&utm_medium=feed">Read more of this story</a> at Slashdot.</p><img src="http://feeds.feedburner.com/~r/Slashdot/slashdot/~4/oBALFu40-po" height="1" width="1" />
p234
stRp235
sg11
g12
((I2012
I7
I3
I21
I47
I0
I1
I185
I0
t(dtRp236
sg14
(lp237
g1
(g2
g3
(dp238
g17
Vhttp://rss.slashdot.org/~r/Slashdot/slashdot/~3/oBALFu40-po/rim-ceo-theres-nothing-wrong-with-the-company
p239
sg19
g20
sg21
g22
stRp240
asg42
(lp241
g1
(g2
g3
(dp242
g45
Vblackberry
p243
sg47
Nsg48
NstRp244
asS'slash_department'
p245
Vreality-distortion-field-on-the-fritz
p246
sS'feedburner_origlink'
p247
Vhttp://news.slashdot.org/story/12/07/03/2146201/rim-ceo-theres-nothing-wrong-with-the-company?utm_source=rss1.0mainlinkanon&utm_medium=feed
p248
sg7
V2012-07-03T21:47:00+00:00
p249
sS'slash_section'
p250
Vnews
p251
sg53
g239
sS'slash_hit_parade'
p252
V123,122,88,73,18,8,5
p253
sg137
Vhttp://news.slashdot.org/story/12/07/03/2146201/rim-ceo-theres-nothing-wrong-with-the-company?utm_source=rss1.0mainlinkanon&utm_medium=feed
p254
sS'slash_comments'
p255
V123
p256
sg55
VRIM CEO: 'There's Nothing Wrong With the Company'
p257
sg94
VSoulskill
p258
sg143
V<p><a href="http://feedads.g.doubleclick.net/~at/deCXe5euy56RzAQv3vmUt0s2sXQ/0/da"><img src="http://feedads.g.doubleclick.net/~at/deCXe5euy56RzAQv3vmUt0s2sXQ/0/di" border="0" ismap="true" /></a><br />\u000a<a href="http://feedads.g.doubleclick.net/~at/deCXe5euy56RzAQv3vmUt0s2sXQ/1/da"><img src="http://feedads.g.doubleclick.net/~at/deCXe5euy56RzAQv3vmUt0s2sXQ/1/di" border="0" ismap="true" /></a></p>redletterdave writes "Research In Motion is in trouble. The BlackBerry maker has been suffering from an identity crisis for the last six months, which has resulted in mass layoffs, lots of job shuffling, dramatic drop-offs in market share and a quickly decaying portfolio for investors. But not according to Thorsten Heins! The newly-appointed CEO published an op-ed in the Toronto Globe and Mail on Tuesday, and also appeared on a radio program the same morning, to deliver one message: 'There's nothing wrong with the company as it exists right now.'"<p><div class="share_submission">\u000a<a class="slashpop" href="http://twitter.com/home?status=RIM+CEO\u005c%3A+'There's+Nothing+Wrong+With+the+Company'\u005c%3A+http\u005c%3A\u005c%2F\u005c%2Fbit.ly\u005c%2FMRViPc"><img src="http://a.fsdn.com/sd/twitter_icon_large.png" /></a>\u000a<a class="slashpop" href="http://www.facebook.com/sharer.php?u=http\u005c%3A\u005c%2F\u005c%2Fnews.slashdot.org\u005c%2Fstory\u005c%2F12\u005c%2F07\u005c%2F03\u005c%2F2146201\u005c%2Frim-ceo-theres-nothing-wrong-with-the-company\u005c%3Futm_source\u005c%3Dslashdot\u005c%26utm_medium\u005c%3Dfacebook"><img src="http://a.fsdn.com/sd/facebook_icon_large.png" /></a>\u000a\u000a<a class="nobg" href="http://plus.google.com/share?url=http://news.slashdot.org/story/12/07/03/2146201/rim-ceo-theres-nothing-wrong-with-the-company?utm_source=slashdot&utm_medium=googleplus"><img src="http://www.gstatic.com/images/icons/gplus-16.png" alt="Share on Google+" /></a>                                                                                                                                                                              \u000a\u000a\u000a\u000a</div></p><p><a href="http://news.slashdot.org/story/12/07/03/2146201/rim-ceo-theres-nothing-wrong-with-the-company?utm_source=rss1.0moreanon&utm_medium=feed">Read more of this story</a> at Slashdot.</p><img src="http://feeds.feedburner.com/~r/Slashdot/slashdot/~4/oBALFu40-po" height="1" width="1" />
p259
sS'title_detail'
p260
g1
(g2
g3
(dp261
g63
S'http://rss.slashdot.org/slashdot/Slashdot'
p262
sg19
S'text/plain'
p263
sg66
Nsg67
g257
stRp264
sg150
(lp265
g81
aV*
astRp266
ag1
(g2
g3
(dp267
S'summary_detail'
p268
g1
(g2
g3
(dp269
g63
S'http://rss.slashdot.org/slashdot/Slashdot'
p270
sg19
S'text/html'
p271
sg66
Nsg67
V<p><a href="http://feedads.g.doubleclick.net/~at/QpF91vIvjbBmvC9hp3s8RFPybjU/0/da"><img src="http://feedads.g.doubleclick.net/~at/QpF91vIvjbBmvC9hp3s8RFPybjU/0/di" border="0" ismap="true" /></a><br />\u000a<a href="http://feedads.g.doubleclick.net/~at/QpF91vIvjbBmvC9hp3s8RFPybjU/1/da"><img src="http://feedads.g.doubleclick.net/~at/QpF91vIvjbBmvC9hp3s8RFPybjU/1/di" border="0" ismap="true" /></a></p>An anonymous reader writes "If you thought that Facebook's recent unannounced change of its users' email address tied with their account to Facebook ones was bad, you'll be livid if you check your mobile phone contacts and discover that the change has deleted the email addresses of many of your friends. According to Facebook, the glitch was due to a bug in its application-programming interface, and causes the last added email address to be pulled and added to the user's phone Contacts. The company says they are working hard at fixing the problem, but in the meantime, a lot of users have effectively lost some of the information stored on their devices."<p><div class="share_submission">\u000a<a class="slashpop" href="http://twitter.com/home?status=Facebook+API+Bug+Deletes+Contact+Info+On+Phones%3A+http%3A%2F%2Fbit.ly%2FLPT7qR"><img src="http://a.fsdn.com/sd/twitter_icon_large.png" /></a>\u000a<a class="slashpop" href="http://www.facebook.com/sharer.php?u=http%3A%2F%2Fmobile.slashdot.org%2Fstory%2F12%2F07%2F03%2F2050225%2Ffacebook-api-bug-deletes-contact-info-on-phones%3Futm_source%3Dslashdot%26utm_medium%3Dfacebook"><img src="http://a.fsdn.com/sd/facebook_icon_large.png" /></a>\u000a\u000a<a class="nobg" href="http://plus.google.com/share?url=http://mobile.slashdot.org/story/12/07/03/2050225/facebook-api-bug-deletes-contact-info-on-phones?utm_source=slashdot&utm_medium=googleplus"><img src="http://www.gstatic.com/images/icons/gplus-16.png" alt="Share on Google+" /></a>                                                                                                                                                                              \u000a\u000a\u000a\u000a</div></p><p><a href="http://mobile.slashdot.org/story/12/07/03/2050225/facebook-api-bug-deletes-contact-info-on-phones?utm_source=rss1.0moreanon&utm_medium=feed">Read more of this story</a> at Slashdot.</p><img src="http://feeds.feedburner.com/~r/Slashdot/slashdot/~4/a1_sONWCl4o" height="1" width="1" />
p272
stRp273
sg11
g12
((I2012
I7
I3
I21
I5
I0
I1
I185
I0
t(dtRp274
sg14
(lp275
g1
(g2
g3
(dp276
g17
Vhttp://rss.slashdot.org/~r/Slashdot/slashdot/~3/a1_sONWCl4o/facebook-api-bug-deletes-contact-info-on-phones
p277
sg19
g20
sg21
g22
stRp278
asg42
(lp279
g1
(g2
g3
(dp280
g45
Vbug
p281
sg47
Nsg48
NstRp282
asS'slash_department'
p283
Vrollouts-that-don't-quite-go-as-planned
p284
sS'feedburner_origlink'
p285
Vhttp://mobile.slashdot.org/story/12/07/03/2050225/facebook-api-bug-deletes-contact-info-on-phones?utm_source=rss1.0mainlinkanon&utm_medium=feed
p286
sg7
V2012-07-03T21:05:00+00:00
p287
sS'slash_section'
p288
Vmobile
p289
sg53
g277
sS'slash_hit_parade'
p290
V113,111,87,64,25,14,7
p291
sg137
Vhttp://mobile.slashdot.org/story/12/07/03/2050225/facebook-api-bug-deletes-contact-info-on-phones?utm_source=rss1.0mainlinkanon&utm_medium=feed
p292
sS'slash_comments'
p293
V113
p294
sg55
VFacebook API Bug Deletes Contact Info On Phones
p295
sg94
VSoulskill
p296
sg143
V<p><a href="http://feedads.g.doubleclick.net/~at/QpF91vIvjbBmvC9hp3s8RFPybjU/0/da"><img src="http://feedads.g.doubleclick.net/~at/QpF91vIvjbBmvC9hp3s8RFPybjU/0/di" border="0" ismap="true" /></a><br />\u000a<a href="http://feedads.g.doubleclick.net/~at/QpF91vIvjbBmvC9hp3s8RFPybjU/1/da"><img src="http://feedads.g.doubleclick.net/~at/QpF91vIvjbBmvC9hp3s8RFPybjU/1/di" border="0" ismap="true" /></a></p>An anonymous reader writes "If you thought that Facebook's recent unannounced change of its users' email address tied with their account to Facebook ones was bad, you'll be livid if you check your mobile phone contacts and discover that the change has deleted the email addresses of many of your friends. According to Facebook, the glitch was due to a bug in its application-programming interface, and causes the last added email address to be pulled and added to the user's phone Contacts. The company says they are working hard at fixing the problem, but in the meantime, a lot of users have effectively lost some of the information stored on their devices."<p><div class="share_submission">\u000a<a class="slashpop" href="http://twitter.com/home?status=Facebook+API+Bug+Deletes+Contact+Info+On+Phones\u005c%3A+http\u005c%3A\u005c%2F\u005c%2Fbit.ly\u005c%2FLPT7qR"><img src="http://a.fsdn.com/sd/twitter_icon_large.png" /></a>\u000a<a class="slashpop" href="http://www.facebook.com/sharer.php?u=http\u005c%3A\u005c%2F\u005c%2Fmobile.slashdot.org\u005c%2Fstory\u005c%2F12\u005c%2F07\u005c%2F03\u005c%2F2050225\u005c%2Ffacebook-api-bug-deletes-contact-info-on-phones\u005c%3Futm_source\u005c%3Dslashdot\u005c%26utm_medium\u005c%3Dfacebook"><img src="http://a.fsdn.com/sd/facebook_icon_large.png" /></a>\u000a\u000a<a class="nobg" href="http://plus.google.com/share?url=http://mobile.slashdot.org/story/12/07/03/2050225/facebook-api-bug-deletes-contact-info-on-phones?utm_source=slashdot&utm_medium=googleplus"><img src="http://www.gstatic.com/images/icons/gplus-16.png" alt="Share on Google+" /></a>                                                                                                                                                                              \u000a\u000a\u000a\u000a</div></p><p><a href="http://mobile.slashdot.org/story/12/07/03/2050225/facebook-api-bug-deletes-contact-info-on-phones?utm_source=rss1.0moreanon&utm_medium=feed">Read more of this story</a> at Slashdot.</p><img src="http://feeds.feedburner.com/~r/Slashdot/slashdot/~4/a1_sONWCl4o" height="1" width="1" />
p297
sS'title_detail'
p298
g1
(g2
g3
(dp299
g63
S'http://rss.slashdot.org/slashdot/Slashdot'
p300
sg19
S'text/plain'
p301
sg66
Nsg67
g295
stRp302
sg150
(lp303
g81
aV*
astRp304
ag1
(g2
g3
(dp305
S'summary_detail'
p306
g1
(g2
g3
(dp307
g63
S'http://rss.slashdot.org/slashdot/Slashdot'
p308
sg19
S'text/html'
p309
sg66
Nsg67
V<p><a href="http://feedads.g.doubleclick.net/~at/mjDRaSQUUuSjFAP4K_1gE5PhUEE/0/da"><img src="http://feedads.g.doubleclick.net/~at/mjDRaSQUUuSjFAP4K_1gE5PhUEE/0/di" border="0" ismap="true" /></a><br />\u000a<a href="http://feedads.g.doubleclick.net/~at/mjDRaSQUUuSjFAP4K_1gE5PhUEE/1/da"><img src="http://feedads.g.doubleclick.net/~at/mjDRaSQUUuSjFAP4K_1gE5PhUEE/1/di" border="0" ismap="true" /></a></p>riverat1 writes "Sea level rise won't stop for several hundred years even if we reverse global warming, according to a study published in the journal Nature Climate Change. As warmer water is mixed down into the oceans, it causes thermal expansion of the water. Under the best emissions scenario, the expected rise is 14.2 cm by 2100; under the worst, 32.2 cm from thermal expansion alone. Any water pumped from aquifers or glacial/ice sheet melt is added to that."<p><div class="share_submission">\u000a<a class="slashpop" href="http://twitter.com/home?status=Sea+Level+Rise+Can't+Be+Stopped%3A+http%3A%2F%2Fbit.ly%2FP7Ll2Y"><img src="http://a.fsdn.com/sd/twitter_icon_large.png" /></a>\u000a<a class="slashpop" href="http://www.facebook.com/sharer.php?u=http%3A%2F%2Fnews.slashdot.org%2Fstory%2F12%2F07%2F03%2F2021236%2Fsea-level-rise-cant-be-stopped%3Futm_source%3Dslashdot%26utm_medium%3Dfacebook"><img src="http://a.fsdn.com/sd/facebook_icon_large.png" /></a>\u000a\u000a<a class="nobg" href="http://plus.google.com/share?url=http://news.slashdot.org/story/12/07/03/2021236/sea-level-rise-cant-be-stopped?utm_source=slashdot&utm_medium=googleplus"><img src="http://www.gstatic.com/images/icons/gplus-16.png" alt="Share on Google+" /></a>                                                                                                                                                                              \u000a\u000a\u000a\u000a</div></p><p><a href="http://news.slashdot.org/story/12/07/03/2021236/sea-level-rise-cant-be-stopped?utm_source=rss1.0moreanon&utm_medium=feed">Read more of this story</a> at Slashdot.</p><img src="http://feeds.feedburner.com/~r/Slashdot/slashdot/~4/ZH5U37ADqsw" height="1" width="1" />
p310
stRp311
sg11
g12
((I2012
I7
I3
I20
I22
I0
I1
I185
I0
t(dtRp312
sg14
(lp313
g1
(g2
g3
(dp314
g17
Vhttp://rss.slashdot.org/~r/Slashdot/slashdot/~3/ZH5U37ADqsw/sea-level-rise-cant-be-stopped
p315
sg19
g20
sg21
g22
stRp316
asg42
(lp317
g1
(g2
g3
(dp318
g45
Vearth
p319
sg47
Nsg48
NstRp320
asS'slash_department'
p321
Vtime-to-invest-in-boat-companies
p322
sS'feedburner_origlink'
p323
Vhttp://news.slashdot.org/story/12/07/03/2021236/sea-level-rise-cant-be-stopped?utm_source=rss1.0mainlinkanon&utm_medium=feed
p324
sg7
V2012-07-03T20:22:00+00:00
p325
sS'slash_section'
p326
Vnews
p327
sg53
g315
sS'slash_hit_parade'
p328
V341,335,245,213,45,24,14
p329
sg137
Vhttp://news.slashdot.org/story/12/07/03/2021236/sea-level-rise-cant-be-stopped?utm_source=rss1.0mainlinkanon&utm_medium=feed
p330
sS'slash_comments'
p331
V341
p332
sg55
VSea Level Rise Can't Be Stopped
p333
sg94
VSoulskill
p334
sg143
V<p><a href="http://feedads.g.doubleclick.net/~at/mjDRaSQUUuSjFAP4K_1gE5PhUEE/0/da"><img src="http://feedads.g.doubleclick.net/~at/mjDRaSQUUuSjFAP4K_1gE5PhUEE/0/di" border="0" ismap="true" /></a><br />\u000a<a href="http://feedads.g.doubleclick.net/~at/mjDRaSQUUuSjFAP4K_1gE5PhUEE/1/da"><img src="http://feedads.g.doubleclick.net/~at/mjDRaSQUUuSjFAP4K_1gE5PhUEE/1/di" border="0" ismap="true" /></a></p>riverat1 writes "Sea level rise won't stop for several hundred years even if we reverse global warming, according to a study published in the journal Nature Climate Change. As warmer water is mixed down into the oceans, it causes thermal expansion of the water. Under the best emissions scenario, the expected rise is 14.2 cm by 2100; under the worst, 32.2 cm from thermal expansion alone. Any water pumped from aquifers or glacial/ice sheet melt is added to that."<p><div class="share_submission">\u000a<a class="slashpop" href="http://twitter.com/home?status=Sea+Level+Rise+Can't+Be+Stopped\u005c%3A+http\u005c%3A\u005c%2F\u005c%2Fbit.ly\u005c%2FP7Ll2Y"><img src="http://a.fsdn.com/sd/twitter_icon_large.png" /></a>\u000a<a class="slashpop" href="http://www.facebook.com/sharer.php?u=http\u005c%3A\u005c%2F\u005c%2Fnews.slashdot.org\u005c%2Fstory\u005c%2F12\u005c%2F07\u005c%2F03\u005c%2F2021236\u005c%2Fsea-level-rise-cant-be-stopped\u005c%3Futm_source\u005c%3Dslashdot\u005c%26utm_medium\u005c%3Dfacebook"><img src="http://a.fsdn.com/sd/facebook_icon_large.png" /></a>\u000a\u000a<a class="nobg" href="http://plus.google.com/share?url=http://news.slashdot.org/story/12/07/03/2021236/sea-level-rise-cant-be-stopped?utm_source=slashdot&utm_medium=googleplus"><img src="http://www.gstatic.com/images/icons/gplus-16.png" alt="Share on Google+" /></a>                                                                                                                                                                              \u000a\u000a\u000a\u000a</div></p><p><a href="http://news.slashdot.org/story/12/07/03/2021236/sea-level-rise-cant-be-stopped?utm_source=rss1.0moreanon&utm_medium=feed">Read more of this story</a> at Slashdot.</p><img src="http://feeds.feedburner.com/~r/Slashdot/slashdot/~4/ZH5U37ADqsw" height="1" width="1" />
p335
sS'title_detail'
p336
g1
(g2
g3
(dp337
g63
S'http://rss.slashdot.org/slashdot/Slashdot'
p338
sg19
S'text/plain'
p339
sg66
Nsg67
g333
stRp340
sg150
(lp341
g81
aV*
astRp342
ag1
(g2
g3
(dp343
S'summary_detail'
p344
g1
(g2
g3
(dp345
g63
S'http://rss.slashdot.org/slashdot/Slashdot'
p346
sg19
S'text/html'
p347
sg66
Nsg67
V<p><a href="http://feedads.g.doubleclick.net/~at/_s0dlrdUH2pQtCu04WMvpWGPZCQ/0/da"><img src="http://feedads.g.doubleclick.net/~at/_s0dlrdUH2pQtCu04WMvpWGPZCQ/0/di" border="0" ismap="true" /></a><br />\u000a<a href="http://feedads.g.doubleclick.net/~at/_s0dlrdUH2pQtCu04WMvpWGPZCQ/1/da"><img src="http://feedads.g.doubleclick.net/~at/_s0dlrdUH2pQtCu04WMvpWGPZCQ/1/di" border="0" ismap="true" /></a></p>An anonymous reader tips a story about comments from Ford Motor Company showing how confident they are in the autonomous car technology currently in development. They say self-driving cars will be here within just five years, and that the tech to do so is available already. They also think these cars will dramatically affect the flow of traffic. Quoting:\u000a"Ford makes this projection, based on simulator studies: If one in four cars has Traffic Jam Assist or similar self-driving technologies, travel times are reduced by 37.5% and delays are reduced by 20%. In other words, if the freeway part of your rush hour commute takes 60 minutes, it will drop to 38. That&rsquo;s because adaptive cruise control (ACC) is better at pacing the car ahead without continual brake, speed-up, brake cycles. Here&rsquo;s how it works: Stop-and-go ACC keeps pace with the car ahead, using a look-ahead radar and mirror-mounted camera. Lane keep assist keeps the car centered, also taking advantage of the camera in the mirror. Electric power steering is better for remote control than mechanical power steering; it can be guided by the Traffic Jam Assist black box. Sonar units &mdash; for blind spot detection and cross traffic alerts (cars crossing behind when backing) &mdash; monitor traffic to the side. Combine all those and you have a car that&rsquo;s smart enough to guide itself during predictable, low-speed conditions."<p><div class="share_submission">\u000a<a class="slashpop" href="http://twitter.com/home?status=Ford+Predicts+Self-Driving%2C+Traffic-Reducing+Cars+By+2017%3A+http%3A%2F%2Fbit.ly%2FMH4nv8"><img src="http://a.fsdn.com/sd/twitter_icon_large.png" /></a>\u000a<a class="slashpop" href="http://www.facebook.com/sharer.php?u=http%3A%2F%2Ftech.slashdot.org%2Fstory%2F12%2F07%2F03%2F1928255%2Fford-predicts-self-driving-traffic-reducing-cars-by-2017%3Futm_source%3Dslashdot%26utm_medium%3Dfacebook"><img src="http://a.fsdn.com/sd/facebook_icon_large.png" /></a>\u000a\u000a<a class="nobg" href="http://plus.google.com/share?url=http://tech.slashdot.org/story/12/07/03/1928255/ford-predicts-self-driving-traffic-reducing-cars-by-2017?utm_source=slashdot&utm_medium=googleplus"><img src="http://www.gstatic.com/images/icons/gplus-16.png" alt="Share on Google+" /></a>                                                                                                                                                                              \u000a\u000a\u000a\u000a</div></p><p><a href="http://tech.slashdot.org/story/12/07/03/1928255/ford-predicts-self-driving-traffic-reducing-cars-by-2017?utm_source=rss1.0moreanon&utm_medium=feed">Read more of this story</a> at Slashdot.</p><img src="http://feeds.feedburner.com/~r/Slashdot/slashdot/~4/C2v68PSmLDQ" height="1" width="1" />
p348
stRp349
sg11
g12
((I2012
I7
I3
I19
I40
I0
I1
I185
I0
t(dtRp350
sg14
(lp351
g1
(g2
g3
(dp352
g17
Vhttp://rss.slashdot.org/~r/Slashdot/slashdot/~3/C2v68PSmLDQ/ford-predicts-self-driving-traffic-reducing-cars-by-2017
p353
sg19
g20
sg21
g22
stRp354
asg42
(lp355
g1
(g2
g3
(dp356
g45
Vsoftware
p357
sg47
Nsg48
NstRp358
asS'slash_department'
p359
Vflying-cars-would-have-helped-with-this
p360
sS'feedburner_origlink'
p361
Vhttp://tech.slashdot.org/story/12/07/03/1928255/ford-predicts-self-driving-traffic-reducing-cars-by-2017?utm_source=rss1.0mainlinkanon&utm_medium=feed
p362
sg7
V2012-07-03T19:40:00+00:00
p363
sS'slash_section'
p364
Vtechnology
p365
sg53
g353
sS'slash_hit_parade'
p366
V282,276,198,162,38,21,11
p367
sg137
Vhttp://tech.slashdot.org/story/12/07/03/1928255/ford-predicts-self-driving-traffic-reducing-cars-by-2017?utm_source=rss1.0mainlinkanon&utm_medium=feed
p368
sS'slash_comments'
p369
V282
p370
sg55
VFord Predicts Self-Driving, Traffic-Reducing Cars By 2017
p371
sg94
VSoulskill
p372
sg143
V<p><a href="http://feedads.g.doubleclick.net/~at/_s0dlrdUH2pQtCu04WMvpWGPZCQ/0/da"><img src="http://feedads.g.doubleclick.net/~at/_s0dlrdUH2pQtCu04WMvpWGPZCQ/0/di" border="0" ismap="true" /></a><br />\u000a<a href="http://feedads.g.doubleclick.net/~at/_s0dlrdUH2pQtCu04WMvpWGPZCQ/1/da"><img src="http://feedads.g.doubleclick.net/~at/_s0dlrdUH2pQtCu04WMvpWGPZCQ/1/di" border="0" ismap="true" /></a></p>An anonymous reader tips a story about comments from Ford Motor Company showing how confident they are in the autonomous car technology currently in development. They say self-driving cars will be here within just five years, and that the tech to do so is available already. They also think these cars will dramatically affect the flow of traffic. Quoting:\u000a"Ford makes this projection, based on simulator studies: If one in four cars has Traffic Jam Assist or similar self-driving technologies, travel times are reduced by 37.5\u005c% and delays are reduced by 20\u005c%. In other words, if the freeway part of your rush hour commute takes 60 minutes, it will drop to 38. That&rsquo;s because adaptive cruise control (ACC) is better at pacing the car ahead without continual brake, speed-up, brake cycles. Here&rsquo;s how it works: Stop-and-go ACC keeps pace with the car ahead, using a look-ahead radar and mirror-mounted camera. Lane keep assist keeps the car centered, also taking advantage of the camera in the mirror. Electric power steering is better for remote control than mechanical power steering; it can be guided by the Traffic Jam Assist black box. Sonar units &mdash; for blind spot detection and cross traffic alerts (cars crossing behind when backing) &mdash; monitor traffic to the side. Combine all those and you have a car that&rsquo;s smart enough to guide itself during predictable, low-speed conditions."<p><div class="share_submission">\u000a<a class="slashpop" href="http://twitter.com/home?status=Ford+Predicts+Self-Driving\u005c%2C+Traffic-Reducing+Cars+By+2017\u005c%3A+http\u005c%3A\u005c%2F\u005c%2Fbit.ly\u005c%2FMH4nv8"><img src="http://a.fsdn.com/sd/twitter_icon_large.png" /></a>\u000a<a class="slashpop" href="http://www.facebook.com/sharer.php?u=http\u005c%3A\u005c%2F\u005c%2Ftech.slashdot.org\u005c%2Fstory\u005c%2F12\u005c%2F07\u005c%2F03\u005c%2F1928255\u005c%2Fford-predicts-self-driving-traffic-reducing-cars-by-2017\u005c%3Futm_source\u005c%3Dslashdot\u005c%26utm_medium\u005c%3Dfacebook"><img src="http://a.fsdn.com/sd/facebook_icon_large.png" /></a>\u000a\u000a<a class="nobg" href="http://plus.google.com/share?url=http://tech.slashdot.org/story/12/07/03/1928255/ford-predicts-self-driving-traffic-reducing-cars-by-2017?utm_source=slashdot&utm_medium=googleplus"><img src="http://www.gstatic.com/images/icons/gplus-16.png" alt="Share on Google+" /></a>                                                                                                                                                                              \u000a\u000a\u000a\u000a</div></p><p><a href="http://tech.slashdot.org/story/12/07/03/1928255/ford-predicts-self-driving-traffic-reducing-cars-by-2017?utm_source=rss1.0moreanon&utm_medium=feed">Read more of this story</a> at Slashdot.</p><img src="http://feeds.feedburner.com/~r/Slashdot/slashdot/~4/C2v68PSmLDQ" height="1" width="1" />
p373
sS'title_detail'
p374
g1
(g2
g3
(dp375
g63
S'http://rss.slashdot.org/slashdot/Slashdot'
p376
sg19
S'text/plain'
p377
sg66
Nsg67
g371
stRp378
sg150
(lp379
g81
aV*
astRp380
ag1
(g2
g3
(dp381
S'summary_detail'
p382
g1
(g2
g3
(dp383
g63
S'http://rss.slashdot.org/slashdot/Slashdot'
p384
sg19
S'text/html'
p385
sg66
Nsg67
V<p><a href="http://feedads.g.doubleclick.net/~at/mCxFDpZtrjpXT-ZFjbeXL01yhJs/0/da"><img src="http://feedads.g.doubleclick.net/~at/mCxFDpZtrjpXT-ZFjbeXL01yhJs/0/di" border="0" ismap="true" /></a><br />\u000a<a href="http://feedads.g.doubleclick.net/~at/mCxFDpZtrjpXT-ZFjbeXL01yhJs/1/da"><img src="http://feedads.g.doubleclick.net/~at/mCxFDpZtrjpXT-ZFjbeXL01yhJs/1/di" border="0" ismap="true" /></a></p>An anonymous reader writes "Microsoft had high hopes for aQuantive when it paid $6.3 billion to acquire the combo online marketing services vendor/advertising agency in 2007, evidently in response to Google's acquisition of DoubleClick.\u000a'Microsoft is intensely committed to creating a thriving advertising business and to partnering closely with all key constituencies in this industry to help maximize the digital advertising opportunity for all,' declared CEO Steve Ballmer. Yesterday Microsoft wrote off $6.2 billion of its investment in aQuantive, as its online division continues to struggle. MS-watcher Mary Jo Foley points out this is one in a list of bad purchases from Microsoft. On the bright side, Microsoft managed to recover an estimated $500 million three years ago from the deal when it sold off the Razorfish ad agency (not sure why this amount wasn't subtracted from today's writedown)."<p><div class="share_submission">\u000a<a class="slashpop" href="http://twitter.com/home?status=Microsoft+Writes+Off+%246.2+Billion+From+aQuantive+Acquisition%3A+http%3A%2F%2Fbit.ly%2FM44wEA"><img src="http://a.fsdn.com/sd/twitter_icon_large.png" /></a>\u000a<a class="slashpop" href="http://www.facebook.com/sharer.php?u=http%3A%2F%2Fnews.slashdot.org%2Fstory%2F12%2F07%2F03%2F1859248%2Fmicrosoft-writes-off-62-billion-from-aquantive-acquisition%3Futm_source%3Dslashdot%26utm_medium%3Dfacebook"><img src="http://a.fsdn.com/sd/facebook_icon_large.png" /></a>\u000a\u000a<a class="nobg" href="http://plus.google.com/share?url=http://news.slashdot.org/story/12/07/03/1859248/microsoft-writes-off-62-billion-from-aquantive-acquisition?utm_source=slashdot&utm_medium=googleplus"><img src="http://www.gstatic.com/images/icons/gplus-16.png" alt="Share on Google+" /></a>                                                                                                                                                                              \u000a\u000a\u000a\u000a</div></p><p><a href="http://news.slashdot.org/story/12/07/03/1859248/microsoft-writes-off-62-billion-from-aquantive-acquisition?utm_source=rss1.0moreanon&utm_medium=feed">Read more of this story</a> at Slashdot.</p><img src="http://feeds.feedburner.com/~r/Slashdot/slashdot/~4/-wQkGLOhDWk" height="1" width="1" />
p386
stRp387
sg11
g12
((I2012
I7
I3
I18
I59
I0
I1
I185
I0
t(dtRp388
sg14
(lp389
g1
(g2
g3
(dp390
g17
Vhttp://rss.slashdot.org/~r/Slashdot/slashdot/~3/-wQkGLOhDWk/microsoft-writes-off-62-billion-from-aquantive-acquisition
p391
sg19
g20
sg21
g22
stRp392
asg42
(lp393
g1
(g2
g3
(dp394
g45
Vmicrosoft
p395
sg47
Nsg48
NstRp396
asS'slash_department'
p397
Vmoney-for-nothin'
p398
sS'feedburner_origlink'
p399
Vhttp://news.slashdot.org/story/12/07/03/1859248/microsoft-writes-off-62-billion-from-aquantive-acquisition?utm_source=rss1.0mainlinkanon&utm_medium=feed
p400
sg7
V2012-07-03T18:59:00+00:00
p401
sS'slash_section'
p402
Vnews
p403
sg53
g391
sS'slash_hit_parade'
p404
V87,85,54,46,12,7,4
p405
sg137
Vhttp://news.slashdot.org/story/12/07/03/1859248/microsoft-writes-off-62-billion-from-aquantive-acquisition?utm_source=rss1.0mainlinkanon&utm_medium=feed
p406
sS'slash_comments'
p407
V87
p408
sg55
VMicrosoft Writes Off $6.2 Billion From aQuantive Acquisition
p409
sg94
VSoulskill
p410
sg143
V<p><a href="http://feedads.g.doubleclick.net/~at/mCxFDpZtrjpXT-ZFjbeXL01yhJs/0/da"><img src="http://feedads.g.doubleclick.net/~at/mCxFDpZtrjpXT-ZFjbeXL01yhJs/0/di" border="0" ismap="true" /></a><br />\u000a<a href="http://feedads.g.doubleclick.net/~at/mCxFDpZtrjpXT-ZFjbeXL01yhJs/1/da"><img src="http://feedads.g.doubleclick.net/~at/mCxFDpZtrjpXT-ZFjbeXL01yhJs/1/di" border="0" ismap="true" /></a></p>An anonymous reader writes "Microsoft had high hopes for aQuantive when it paid $6.3 billion to acquire the combo online marketing services vendor/advertising agency in 2007, evidently in response to Google's acquisition of DoubleClick.\u000a'Microsoft is intensely committed to creating a thriving advertising business and to partnering closely with all key constituencies in this industry to help maximize the digital advertising opportunity for all,' declared CEO Steve Ballmer. Yesterday Microsoft wrote off $6.2 billion of its investment in aQuantive, as its online division continues to struggle. MS-watcher Mary Jo Foley points out this is one in a list of bad purchases from Microsoft. On the bright side, Microsoft managed to recover an estimated $500 million three years ago from the deal when it sold off the Razorfish ad agency (not sure why this amount wasn't subtracted from today's writedown)."<p><div class="share_submission">\u000a<a class="slashpop" href="http://twitter.com/home?status=Microsoft+Writes+Off+\u005c%246.2+Billion+From+aQuantive+Acquisition\u005c%3A+http\u005c%3A\u005c%2F\u005c%2Fbit.ly\u005c%2FM44wEA"><img src="http://a.fsdn.com/sd/twitter_icon_large.png" /></a>\u000a<a class="slashpop" href="http://www.facebook.com/sharer.php?u=http\u005c%3A\u005c%2F\u005c%2Fnews.slashdot.org\u005c%2Fstory\u005c%2F12\u005c%2F07\u005c%2F03\u005c%2F1859248\u005c%2Fmicrosoft-writes-off-62-billion-from-aquantive-acquisition\u005c%3Futm_source\u005c%3Dslashdot\u005c%26utm_medium\u005c%3Dfacebook"><img src="http://a.fsdn.com/sd/facebook_icon_large.png" /></a>\u000a\u000a<a class="nobg" href="http://plus.google.com/share?url=http://news.slashdot.org/story/12/07/03/1859248/microsoft-writes-off-62-billion-from-aquantive-acquisition?utm_source=slashdot&utm_medium=googleplus"><img src="http://www.gstatic.com/images/icons/gplus-16.png" alt="Share on Google+" /></a>                                                                                                                                                                              \u000a\u000a\u000a\u000a</div></p><p><a href="http://news.slashdot.org/story/12/07/03/1859248/microsoft-writes-off-62-billion-from-aquantive-acquisition?utm_source=rss1.0moreanon&utm_medium=feed">Read more of this story</a> at Slashdot.</p><img src="http://feeds.feedburner.com/~r/Slashdot/slashdot/~4/-wQkGLOhDWk" height="1" width="1" />
p411
sS'title_detail'
p412
g1
(g2
g3
(dp413
g63
S'http://rss.slashdot.org/slashdot/Slashdot'
p414
sg19
S'text/plain'
p415
sg66
Nsg67
g409
stRp416
sg150
(lp417
g81
aV*
astRp418
ag1
(g2
g3
(dp419
S'summary_detail'
p420
g1
(g2
g3
(dp421
g63
S'http://rss.slashdot.org/slashdot/Slashdot'
p422
sg19
S'text/html'
p423
sg66
Nsg67
V<p><a href="http://feedads.g.doubleclick.net/~at/ZsTWf1lqfPZD_Mq5m5aLBqDsvDE/0/da"><img src="http://feedads.g.doubleclick.net/~at/ZsTWf1lqfPZD_Mq5m5aLBqDsvDE/0/di" border="0" ismap="true" /></a><br />\u000a<a href="http://feedads.g.doubleclick.net/~at/ZsTWf1lqfPZD_Mq5m5aLBqDsvDE/1/da"><img src="http://feedads.g.doubleclick.net/~at/ZsTWf1lqfPZD_Mq5m5aLBqDsvDE/1/di" border="0" ismap="true" /></a></p>Nerval's Lobster writes "Tech writer David Strom starts a discussion about how you should go about securing virtual machines for your organization. 'The need to protect physical infrastructure is well known at this point: most enterprises would balk at a network without any firewalls, intrusion prevention devices or anti-virus scanners. Yet these devices aren&rsquo;t as well deployed in the virtual context. ... Take firewalls, for example. The traditional firewalls from Checkpoint or Juniper aren&rsquo;t designed to inspect and filter the vast amount of traffic originating from a hypervisor running, say, ten virtualized servers. Because VMs can start, stop, and move from hypervisor to hypervisor at the click of a button, protective features have to be able to handle these movements and activities with ease and not set off all sorts of alarms within an IT department.' He goes through the main functional areas that need protection, and points out that many vendors make it difficult to price out a given security plan."<p><div class="share_submission">\u000a<a class="slashpop" href="http://twitter.com/home?status=Choosing+the+Right+Security+Tools+To+Protect+VMs%3A+http%3A%2F%2Fbit.ly%2FN5XRZI"><img src="http://a.fsdn.com/sd/twitter_icon_large.png" /></a>\u000a<a class="slashpop" href="http://www.facebook.com/sharer.php?u=http%3A%2F%2Ftech.slashdot.org%2Fstory%2F12%2F07%2F03%2F184210%2Fchoosing-the-right-security-tools-to-protect-vms%3Futm_source%3Dslashdot%26utm_medium%3Dfacebook"><img src="http://a.fsdn.com/sd/facebook_icon_large.png" /></a>\u000a\u000a<a class="nobg" href="http://plus.google.com/share?url=http://tech.slashdot.org/story/12/07/03/184210/choosing-the-right-security-tools-to-protect-vms?utm_source=slashdot&utm_medium=googleplus"><img src="http://www.gstatic.com/images/icons/gplus-16.png" alt="Share on Google+" /></a>                                                                                                                                                                              \u000a\u000a\u000a\u000a</div></p><p><a href="http://tech.slashdot.org/story/12/07/03/184210/choosing-the-right-security-tools-to-protect-vms?utm_source=rss1.0moreanon&utm_medium=feed">Read more of this story</a> at Slashdot.</p><img src="http://feeds.feedburner.com/~r/Slashdot/slashdot/~4/O6b63Pjngfk" height="1" width="1" />
p424
stRp425
sg11
g12
((I2012
I7
I3
I18
I32
I0
I1
I185
I0
t(dtRp426
sg14
(lp427
g1
(g2
g3
(dp428
g17
Vhttp://rss.slashdot.org/~r/Slashdot/slashdot/~3/O6b63Pjngfk/choosing-the-right-security-tools-to-protect-vms
p429
sg19
g20
sg21
g22
stRp430
asg42
(lp431
g1
(g2
g3
(dp432
g45
Vsecurity
p433
sg47
Nsg48
NstRp434
asS'slash_department'
p435
Vfind-a-good-dartboard
p436
sS'feedburner_origlink'
p437
Vhttp://tech.slashdot.org/story/12/07/03/184210/choosing-the-right-security-tools-to-protect-vms?utm_source=rss1.0mainlinkanon&utm_medium=feed
p438
sg7
V2012-07-03T18:32:00+00:00
p439
sS'slash_section'
p440
Vtechnology
p441
sg53
g429
sS'slash_hit_parade'
p442
V41,40,32,25,5,2,1
p443
sg137
Vhttp://tech.slashdot.org/story/12/07/03/184210/choosing-the-right-security-tools-to-protect-vms?utm_source=rss1.0mainlinkanon&utm_medium=feed
p444
sS'slash_comments'
p445
V41
p446
sg55
VChoosing the Right Security Tools To Protect VMs
p447
sg94
VSoulskill
p448
sg143
V<p><a href="http://feedads.g.doubleclick.net/~at/ZsTWf1lqfPZD_Mq5m5aLBqDsvDE/0/da"><img src="http://feedads.g.doubleclick.net/~at/ZsTWf1lqfPZD_Mq5m5aLBqDsvDE/0/di" border="0" ismap="true" /></a><br />\u000a<a href="http://feedads.g.doubleclick.net/~at/ZsTWf1lqfPZD_Mq5m5aLBqDsvDE/1/da"><img src="http://feedads.g.doubleclick.net/~at/ZsTWf1lqfPZD_Mq5m5aLBqDsvDE/1/di" border="0" ismap="true" /></a></p>Nerval's Lobster writes "Tech writer David Strom starts a discussion about how you should go about securing virtual machines for your organization. 'The need to protect physical infrastructure is well known at this point: most enterprises would balk at a network without any firewalls, intrusion prevention devices or anti-virus scanners. Yet these devices aren&rsquo;t as well deployed in the virtual context. ... Take firewalls, for example. The traditional firewalls from Checkpoint or Juniper aren&rsquo;t designed to inspect and filter the vast amount of traffic originating from a hypervisor running, say, ten virtualized servers. Because VMs can start, stop, and move from hypervisor to hypervisor at the click of a button, protective features have to be able to handle these movements and activities with ease and not set off all sorts of alarms within an IT department.' He goes through the main functional areas that need protection, and points out that many vendors make it difficult to price out a given security plan."<p><div class="share_submission">\u000a<a class="slashpop" href="http://twitter.com/home?status=Choosing+the+Right+Security+Tools+To+Protect+VMs\u005c%3A+http\u005c%3A\u005c%2F\u005c%2Fbit.ly\u005c%2FN5XRZI"><img src="http://a.fsdn.com/sd/twitter_icon_large.png" /></a>\u000a<a class="slashpop" href="http://www.facebook.com/sharer.php?u=http\u005c%3A\u005c%2F\u005c%2Ftech.slashdot.org\u005c%2Fstory\u005c%2F12\u005c%2F07\u005c%2F03\u005c%2F184210\u005c%2Fchoosing-the-right-security-tools-to-protect-vms\u005c%3Futm_source\u005c%3Dslashdot\u005c%26utm_medium\u005c%3Dfacebook"><img src="http://a.fsdn.com/sd/facebook_icon_large.png" /></a>\u000a\u000a<a class="nobg" href="http://plus.google.com/share?url=http://tech.slashdot.org/story/12/07/03/184210/choosing-the-right-security-tools-to-protect-vms?utm_source=slashdot&utm_medium=googleplus"><img src="http://www.gstatic.com/images/icons/gplus-16.png" alt="Share on Google+" /></a>                                                                                                                                                                              \u000a\u000a\u000a\u000a</div></p><p><a href="http://tech.slashdot.org/story/12/07/03/184210/choosing-the-right-security-tools-to-protect-vms?utm_source=rss1.0moreanon&utm_medium=feed">Read more of this story</a> at Slashdot.</p><img src="http://feeds.feedburner.com/~r/Slashdot/slashdot/~4/O6b63Pjngfk" height="1" width="1" />
p449
sS'title_detail'
p450
g1
(g2
g3
(dp451
g63
S'http://rss.slashdot.org/slashdot/Slashdot'
p452
sg19
S'text/plain'
p453
sg66
Nsg67
g447
stRp454
sg150
(lp455
g81
aV*
astRp456
ag1
(g2
g3
(dp457
S'summary_detail'
p458
g1
(g2
g3
(dp459
g63
S'http://rss.slashdot.org/slashdot/Slashdot'
p460
sg19
S'text/html'
p461
sg66
Nsg67
V<p><a href="http://feedads.g.doubleclick.net/~at/mMrSM77B3QD9us_ggMF71GRovLI/0/da"><img src="http://feedads.g.doubleclick.net/~at/mMrSM77B3QD9us_ggMF71GRovLI/0/di" border="0" ismap="true" /></a><br />\u000a<a href="http://feedads.g.doubleclick.net/~at/mMrSM77B3QD9us_ggMF71GRovLI/1/da"><img src="http://feedads.g.doubleclick.net/~at/mMrSM77B3QD9us_ggMF71GRovLI/1/di" border="0" ismap="true" /></a></p>Zothecula writes "In the quest to develop implantable electronics to monitor the human body from within, flexibility and stretchability have been major hurdles. We've seen numerous developments including stretchable LED arrays, an implantable device for measuring the heart's electrical output, and an electrode array that melts onto the surface of the brain. Now researchers have developed technology that combines a porous polymer and liquid metal that allows electronics to bend and stretch to more than 200 percent their original size (abstract)."<p><div class="share_submission">\u000a<a class="slashpop" href="http://twitter.com/home?status='Rubber-Band+Electronics'+Can+Stretch+To+200+Percent+Their+Original+Size%3A+http%3A%2F%2Fbit.ly%2FLVWLWi"><img src="http://a.fsdn.com/sd/twitter_icon_large.png" /></a>\u000a<a class="slashpop" href="http://www.facebook.com/sharer.php?u=http%3A%2F%2Fhardware.slashdot.org%2Fstory%2F12%2F07%2F03%2F1742228%2Frubber-band-electronics-can-stretch-to-200-percent-their-original-size%3Futm_source%3Dslashdot%26utm_medium%3Dfacebook"><img src="http://a.fsdn.com/sd/facebook_icon_large.png" /></a>\u000a\u000a<a class="nobg" href="http://plus.google.com/share?url=http://hardware.slashdot.org/story/12/07/03/1742228/rubber-band-electronics-can-stretch-to-200-percent-their-original-size?utm_source=slashdot&utm_medium=googleplus"><img src="http://www.gstatic.com/images/icons/gplus-16.png" alt="Share on Google+" /></a>                                                                                                                                                                              \u000a\u000a\u000a\u000a</div></p><p><a href="http://hardware.slashdot.org/story/12/07/03/1742228/rubber-band-electronics-can-stretch-to-200-percent-their-original-size?utm_source=rss1.0moreanon&utm_medium=feed">Read more of this story</a> at Slashdot.</p><img src="http://feeds.feedburner.com/~r/Slashdot/slashdot/~4/M6lIqJUYbTM" height="1" width="1" />
p462
stRp463
sg11
g12
((I2012
I7
I3
I18
I11
I0
I1
I185
I0
t(dtRp464
sg14
(lp465
g1
(g2
g3
(dp466
g17
Vhttp://rss.slashdot.org/~r/Slashdot/slashdot/~3/M6lIqJUYbTM/rubber-band-electronics-can-stretch-to-200-percent-their-original-size
p467
sg19
g20
sg21
g22
stRp468
asg42
(lp469
g1
(g2
g3
(dp470
g45
Vhardware
p471
sg47
Nsg48
NstRp472
asS'slash_department'
p473
Vsilly-putty-circuitboards
p474
sS'feedburner_origlink'
p475
Vhttp://hardware.slashdot.org/story/12/07/03/1742228/rubber-band-electronics-can-stretch-to-200-percent-their-original-size?utm_source=rss1.0mainlinkanon&utm_medium=feed
p476
sg7
V2012-07-03T18:11:00+00:00
p477
sS'slash_section'
p478
Vhardware
p479
sg53
g467
sS'slash_hit_parade'
p480
V34,34,20,17,3,1,0
p481
sg137
Vhttp://hardware.slashdot.org/story/12/07/03/1742228/rubber-band-electronics-can-stretch-to-200-percent-their-original-size?utm_source=rss1.0mainlinkanon&utm_medium=feed
p482
sS'slash_comments'
p483
V34
p484
sg55
V'Rubber-Band Electronics' Can Stretch To 200 Percent Their Original Size
p485
sg94
VSoulskill
p486
sg143
V<p><a href="http://feedads.g.doubleclick.net/~at/mMrSM77B3QD9us_ggMF71GRovLI/0/da"><img src="http://feedads.g.doubleclick.net/~at/mMrSM77B3QD9us_ggMF71GRovLI/0/di" border="0" ismap="true" /></a><br />\u000a<a href="http://feedads.g.doubleclick.net/~at/mMrSM77B3QD9us_ggMF71GRovLI/1/da"><img src="http://feedads.g.doubleclick.net/~at/mMrSM77B3QD9us_ggMF71GRovLI/1/di" border="0" ismap="true" /></a></p>Zothecula writes "In the quest to develop implantable electronics to monitor the human body from within, flexibility and stretchability have been major hurdles. We've seen numerous developments including stretchable LED arrays, an implantable device for measuring the heart's electrical output, and an electrode array that melts onto the surface of the brain. Now researchers have developed technology that combines a porous polymer and liquid metal that allows electronics to bend and stretch to more than 200 percent their original size (abstract)."<p><div class="share_submission">\u000a<a class="slashpop" href="http://twitter.com/home?status='Rubber-Band+Electronics'+Can+Stretch+To+200+Percent+Their+Original+Size\u005c%3A+http\u005c%3A\u005c%2F\u005c%2Fbit.ly\u005c%2FLVWLWi"><img src="http://a.fsdn.com/sd/twitter_icon_large.png" /></a>\u000a<a class="slashpop" href="http://www.facebook.com/sharer.php?u=http\u005c%3A\u005c%2F\u005c%2Fhardware.slashdot.org\u005c%2Fstory\u005c%2F12\u005c%2F07\u005c%2F03\u005c%2F1742228\u005c%2Frubber-band-electronics-can-stretch-to-200-percent-their-original-size\u005c%3Futm_source\u005c%3Dslashdot\u005c%26utm_medium\u005c%3Dfacebook"><img src="http://a.fsdn.com/sd/facebook_icon_large.png" /></a>\u000a\u000a<a class="nobg" href="http://plus.google.com/share?url=http://hardware.slashdot.org/story/12/07/03/1742228/rubber-band-electronics-can-stretch-to-200-percent-their-original-size?utm_source=slashdot&utm_medium=googleplus"><img src="http://www.gstatic.com/images/icons/gplus-16.png" alt="Share on Google+" /></a>                                                                                                                                                                              \u000a\u000a\u000a\u000a</div></p><p><a href="http://hardware.slashdot.org/story/12/07/03/1742228/rubber-band-electronics-can-stretch-to-200-percent-their-original-size?utm_source=rss1.0moreanon&utm_medium=feed">Read more of this story</a> at Slashdot.</p><img src="http://feeds.feedburner.com/~r/Slashdot/slashdot/~4/M6lIqJUYbTM" height="1" width="1" />
p487
sS'title_detail'
p488
g1
(g2
g3
(dp489
g63
S'http://rss.slashdot.org/slashdot/Slashdot'
p490
sg19
S'text/plain'
p491
sg66
Nsg67
g485
stRp492
sg150
(lp493
g81
aV*
astRp494
ag1
(g2
g3
(dp495
S'summary_detail'
p496
g1
(g2
g3
(dp497
g63
S'http://rss.slashdot.org/slashdot/Slashdot'
p498
sg19
S'text/html'
p499
sg66
Nsg67
V<p><a href="http://feedads.g.doubleclick.net/~at/NxxafOw4C-YTGMWKL54mBM6Jrc4/0/da"><img src="http://feedads.g.doubleclick.net/~at/NxxafOw4C-YTGMWKL54mBM6Jrc4/0/di" border="0" ismap="true" /></a><br />\u000a<a href="http://feedads.g.doubleclick.net/~at/NxxafOw4C-YTGMWKL54mBM6Jrc4/1/da"><img src="http://feedads.g.doubleclick.net/~at/NxxafOw4C-YTGMWKL54mBM6Jrc4/1/di" border="0" ismap="true" /></a></p>MrSeb writes "The VideoLAN Project has pushed a beta version of VLC for Android to the Google Play Store. The beta brings most of the functionality of VLC for Linux, Windows, and Mac OS X to Android in a native UI in the Android 4.0 Holo style. However, there are a few hitches. The beta release published to the Google Play Store today is only compatible with ARM systems that use the ARMv7 architecture set and support the NEON instruction set. That means that there are several devices &mdash; mostly those released before the Samsung Galaxy S in late 2010, and anything powered by Tegra 2 &mdash; that cannot run the current beta. Also, apparently due to a lack of North America-specific Android test devices, VLC for Android is currently not available from the US or Canadian Play Store. Both problems should be rectified soon, though." VLC is one of those impressive programs that just works with nearly any input thrown at it, and one of the first things I put on any computer. I hope the Android version retains pitch-controlled variable-speed playback, perhaps my favorite VLC feature, and something I miss on my tablet.<p><div class="share_submission">\u000a<a class="slashpop" href="http://twitter.com/home?status=VLC+'s+Beta+For+Android+Is+Ready+%26mdash%3B+Unless+You're+North+American%3A+http%3A%2F%2Fbit.ly%2FN8Ae6C"><img src="http://a.fsdn.com/sd/twitter_icon_large.png" /></a>\u000a<a class="slashpop" href="http://www.facebook.com/sharer.php?u=http%3A%2F%2Ftech.slashdot.org%2Fstory%2F12%2F07%2F03%2F1630243%2Fvlc-s-beta-for-android-is-ready-unless-youre-north-american%3Futm_source%3Dslashdot%26utm_medium%3Dfacebook"><img src="http://a.fsdn.com/sd/facebook_icon_large.png" /></a>\u000a\u000a<a class="nobg" href="http://plus.google.com/share?url=http://tech.slashdot.org/story/12/07/03/1630243/vlc-s-beta-for-android-is-ready-unless-youre-north-american?utm_source=slashdot&utm_medium=googleplus"><img src="http://www.gstatic.com/images/icons/gplus-16.png" alt="Share on Google+" /></a>                                                                                                                                                                              \u000a\u000a\u000a\u000a</div></p><p><a href="http://tech.slashdot.org/story/12/07/03/1630243/vlc-s-beta-for-android-is-ready-unless-youre-north-american?utm_source=rss1.0moreanon&utm_medium=feed">Read more of this story</a> at Slashdot.</p><img src="http://feeds.feedburner.com/~r/Slashdot/slashdot/~4/Kbms8D1RPqk" height="1" width="1" />
p500
stRp501
sg11
g12
((I2012
I7
I3
I17
I29
I0
I1
I185
I0
t(dtRp502
sg14
(lp503
g1
(g2
g3
(dp504
g17
Vhttp://rss.slashdot.org/~r/Slashdot/slashdot/~3/Kbms8D1RPqk/vlc-s-beta-for-android-is-ready-unless-youre-north-american
p505
sg19
g20
sg21
g22
stRp506
asg42
(lp507
g1
(g2
g3
(dp508
g45
Vandroid
p509
sg47
Nsg48
NstRp510
asS'slash_department'
p511
Vnorteamericano-is-the-correct-term
p512
sS'feedburner_origlink'
p513
Vhttp://tech.slashdot.org/story/12/07/03/1630243/vlc-s-beta-for-android-is-ready-unless-youre-north-american?utm_source=rss1.0mainlinkanon&utm_medium=feed
p514
sg7
V2012-07-03T17:29:00+00:00
p515
sS'slash_section'
p516
Vtechnology
p517
sg53
g505
sS'slash_hit_parade'
p518
V95,91,70,61,15,8,4
p519
sg137
Vhttp://tech.slashdot.org/story/12/07/03/1630243/vlc-s-beta-for-android-is-ready-unless-youre-north-american?utm_source=rss1.0mainlinkanon&utm_medium=feed
p520
sS'slash_comments'
p521
V95
p522
sg55
VVLC 's Beta For Android Is Ready &mdash; Unless You're North American
p523
sg94
Vtimothy
p524
sg143
V<p><a href="http://feedads.g.doubleclick.net/~at/NxxafOw4C-YTGMWKL54mBM6Jrc4/0/da"><img src="http://feedads.g.doubleclick.net/~at/NxxafOw4C-YTGMWKL54mBM6Jrc4/0/di" border="0" ismap="true" /></a><br />\u000a<a href="http://feedads.g.doubleclick.net/~at/NxxafOw4C-YTGMWKL54mBM6Jrc4/1/da"><img src="http://feedads.g.doubleclick.net/~at/NxxafOw4C-YTGMWKL54mBM6Jrc4/1/di" border="0" ismap="true" /></a></p>MrSeb writes "The VideoLAN Project has pushed a beta version of VLC for Android to the Google Play Store. The beta brings most of the functionality of VLC for Linux, Windows, and Mac OS X to Android in a native UI in the Android 4.0 Holo style. However, there are a few hitches. The beta release published to the Google Play Store today is only compatible with ARM systems that use the ARMv7 architecture set and support the NEON instruction set. That means that there are several devices &mdash; mostly those released before the Samsung Galaxy S in late 2010, and anything powered by Tegra 2 &mdash; that cannot run the current beta. Also, apparently due to a lack of North America-specific Android test devices, VLC for Android is currently not available from the US or Canadian Play Store. Both problems should be rectified soon, though." VLC is one of those impressive programs that just works with nearly any input thrown at it, and one of the first things I put on any computer. I hope the Android version retains pitch-controlled variable-speed playback, perhaps my favorite VLC feature, and something I miss on my tablet.<p><div class="share_submission">\u000a<a class="slashpop" href="http://twitter.com/home?status=VLC+'s+Beta+For+Android+Is+Ready+\u005c%26mdash\u005c%3B+Unless+You're+North+American\u005c%3A+http\u005c%3A\u005c%2F\u005c%2Fbit.ly\u005c%2FN8Ae6C"><img src="http://a.fsdn.com/sd/twitter_icon_large.png" /></a>\u000a<a class="slashpop" href="http://www.facebook.com/sharer.php?u=http\u005c%3A\u005c%2F\u005c%2Ftech.slashdot.org\u005c%2Fstory\u005c%2F12\u005c%2F07\u005c%2F03\u005c%2F1630243\u005c%2Fvlc-s-beta-for-android-is-ready-unless-youre-north-american\u005c%3Futm_source\u005c%3Dslashdot\u005c%26utm_medium\u005c%3Dfacebook"><img src="http://a.fsdn.com/sd/facebook_icon_large.png" /></a>\u000a\u000a<a class="nobg" href="http://plus.google.com/share?url=http://tech.slashdot.org/story/12/07/03/1630243/vlc-s-beta-for-android-is-ready-unless-youre-north-american?utm_source=slashdot&utm_medium=googleplus"><img src="http://www.gstatic.com/images/icons/gplus-16.png" alt="Share on Google+" /></a>                                                                                                                                                                              \u000a\u000a\u000a\u000a</div></p><p><a href="http://tech.slashdot.org/story/12/07/03/1630243/vlc-s-beta-for-android-is-ready-unless-youre-north-american?utm_source=rss1.0moreanon&utm_medium=feed">Read more of this story</a> at Slashdot.</p><img src="http://feeds.feedburner.com/~r/Slashdot/slashdot/~4/Kbms8D1RPqk" height="1" width="1" />
p525
sS'title_detail'
p526
g1
(g2
g3
(dp527
g63
S'http://rss.slashdot.org/slashdot/Slashdot'
p528
sg19
S'text/plain'
p529
sg66
Nsg67
g523
stRp530
sg150
(lp531
g81
aV*
astRp532
ag1
(g2
g3
(dp533
S'summary_detail'
p534
g1
(g2
g3
(dp535
g63
S'http://rss.slashdot.org/slashdot/Slashdot'
p536
sg19
S'text/html'
p537
sg66
Nsg67
V<p><a href="http://feedads.g.doubleclick.net/~at/IzjgXONj4yDDBpJNhbYaRd-ZGww/0/da"><img src="http://feedads.g.doubleclick.net/~at/IzjgXONj4yDDBpJNhbYaRd-ZGww/0/di" border="0" ismap="true" /></a><br />\u000a<a href="http://feedads.g.doubleclick.net/~at/IzjgXONj4yDDBpJNhbYaRd-ZGww/1/da"><img src="http://feedads.g.doubleclick.net/~at/IzjgXONj4yDDBpJNhbYaRd-ZGww/1/di" border="0" ismap="true" /></a></p>coondoggie writes "Want to run a successful high-tech company? Don't drop out of college. The myth of the brilliant Ivy League student who starts a business in his dorm room, drops out of school, and goes on to run a successful high-tech start-up for many decades to come is essentially just that: a myth. Despite a few high-profile exceptions &mdash; such as Mark Zuckerberg and Bill Gates &mdash; the vast majority of CEOs running successful U.S. high-tech firms have college degrees, and more than half have at least one graduate degree."<p><div class="share_submission">\u000a<a class="slashpop" href="http://twitter.com/home?status=Why+Mark+Zuckerberg+Is+a+Bad+Role+Model+For+Aspiring+Tech+Execs%3A+http%3A%2F%2Fbit.ly%2FMTpGHC"><img src="http://a.fsdn.com/sd/twitter_icon_large.png" /></a>\u000a<a class="slashpop" href="http://www.facebook.com/sharer.php?u=http%3A%2F%2Fnews.slashdot.org%2Fstory%2F12%2F07%2F03%2F1612253%2Fwhy-mark-zuckerberg-is-a-bad-role-model-for-aspiring-tech-execs%3Futm_source%3Dslashdot%26utm_medium%3Dfacebook"><img src="http://a.fsdn.com/sd/facebook_icon_large.png" /></a>\u000a\u000a<a class="nobg" href="http://plus.google.com/share?url=http://news.slashdot.org/story/12/07/03/1612253/why-mark-zuckerberg-is-a-bad-role-model-for-aspiring-tech-execs?utm_source=slashdot&utm_medium=googleplus"><img src="http://www.gstatic.com/images/icons/gplus-16.png" alt="Share on Google+" /></a>                                                                                                                                                                              \u000a\u000a\u000a\u000a</div></p><p><a href="http://news.slashdot.org/story/12/07/03/1612253/why-mark-zuckerberg-is-a-bad-role-model-for-aspiring-tech-execs?utm_source=rss1.0moreanon&utm_medium=feed">Read more of this story</a> at Slashdot.</p><img src="http://feeds.feedburner.com/~r/Slashdot/slashdot/~4/SKxJFuTcjg8" height="1" width="1" />
p538
stRp539
sg11
g12
((I2012
I7
I3
I16
I50
I0
I1
I185
I0
t(dtRp540
sg14
(lp541
g1
(g2
g3
(dp542
g17
Vhttp://rss.slashdot.org/~r/Slashdot/slashdot/~3/SKxJFuTcjg8/why-mark-zuckerberg-is-a-bad-role-model-for-aspiring-tech-execs
p543
sg19
g20
sg21
g22
stRp544
asg42
(lp545
g1
(g2
g3
(dp546
g45
Vbusiness
p547
sg47
Nsg48
NstRp548
asS'slash_department'
p549
Vstep-one-matriculate-at-harvard
p550
sS'feedburner_origlink'
p551
Vhttp://news.slashdot.org/story/12/07/03/1612253/why-mark-zuckerberg-is-a-bad-role-model-for-aspiring-tech-execs?utm_source=rss1.0mainlinkanon&utm_medium=feed
p552
sg7
V2012-07-03T16:50:00+00:00
p553
sS'slash_section'
p554
Vnews
p555
sg53
g543
sS'slash_hit_parade'
p556
V282,279,201,145,46,26,16
p557
sg137
Vhttp://news.slashdot.org/story/12/07/03/1612253/why-mark-zuckerberg-is-a-bad-role-model-for-aspiring-tech-execs?utm_source=rss1.0mainlinkanon&utm_medium=feed
p558
sS'slash_comments'
p559
V282
p560
sg55
VWhy Mark Zuckerberg Is a Bad Role Model For Aspiring Tech Execs
p561
sg94
Vtimothy
p562
sg143
V<p><a href="http://feedads.g.doubleclick.net/~at/IzjgXONj4yDDBpJNhbYaRd-ZGww/0/da"><img src="http://feedads.g.doubleclick.net/~at/IzjgXONj4yDDBpJNhbYaRd-ZGww/0/di" border="0" ismap="true" /></a><br />\u000a<a href="http://feedads.g.doubleclick.net/~at/IzjgXONj4yDDBpJNhbYaRd-ZGww/1/da"><img src="http://feedads.g.doubleclick.net/~at/IzjgXONj4yDDBpJNhbYaRd-ZGww/1/di" border="0" ismap="true" /></a></p>coondoggie writes "Want to run a successful high-tech company? Don't drop out of college. The myth of the brilliant Ivy League student who starts a business in his dorm room, drops out of school, and goes on to run a successful high-tech start-up for many decades to come is essentially just that: a myth. Despite a few high-profile exceptions &mdash; such as Mark Zuckerberg and Bill Gates &mdash; the vast majority of CEOs running successful U.S. high-tech firms have college degrees, and more than half have at least one graduate degree."<p><div class="share_submission">\u000a<a class="slashpop" href="http://twitter.com/home?status=Why+Mark+Zuckerberg+Is+a+Bad+Role+Model+For+Aspiring+Tech+Execs\u005c%3A+http\u005c%3A\u005c%2F\u005c%2Fbit.ly\u005c%2FMTpGHC"><img src="http://a.fsdn.com/sd/twitter_icon_large.png" /></a>\u000a<a class="slashpop" href="http://www.facebook.com/sharer.php?u=http\u005c%3A\u005c%2F\u005c%2Fnews.slashdot.org\u005c%2Fstory\u005c%2F12\u005c%2F07\u005c%2F03\u005c%2F1612253\u005c%2Fwhy-mark-zuckerberg-is-a-bad-role-model-for-aspiring-tech-execs\u005c%3Futm_source\u005c%3Dslashdot\u005c%26utm_medium\u005c%3Dfacebook"><img src="http://a.fsdn.com/sd/facebook_icon_large.png" /></a>\u000a\u000a<a class="nobg" href="http://plus.google.com/share?url=http://news.slashdot.org/story/12/07/03/1612253/why-mark-zuckerberg-is-a-bad-role-model-for-aspiring-tech-execs?utm_source=slashdot&utm_medium=googleplus"><img src="http://www.gstatic.com/images/icons/gplus-16.png" alt="Share on Google+" /></a>                                                                                                                                                                              \u000a\u000a\u000a\u000a</div></p><p><a href="http://news.slashdot.org/story/12/07/03/1612253/why-mark-zuckerberg-is-a-bad-role-model-for-aspiring-tech-execs?utm_source=rss1.0moreanon&utm_medium=feed">Read more of this story</a> at Slashdot.</p><img src="http://feeds.feedburner.com/~r/Slashdot/slashdot/~4/SKxJFuTcjg8" height="1" width="1" />
p563
sS'title_detail'
p564
g1
(g2
g3
(dp565
g63
S'http://rss.slashdot.org/slashdot/Slashdot'
p566
sg19
S'text/plain'
p567
sg66
Nsg67
g561
stRp568
sg150
(lp569
g81
aV*
astRp570
ag1
(g2
g3
(dp571
S'summary_detail'
p572
g1
(g2
g3
(dp573
g63
S'http://rss.slashdot.org/slashdot/Slashdot'
p574
sg19
S'text/html'
p575
sg66
Nsg67
V<p><a href="http://feedads.g.doubleclick.net/~at/6Ds4IVcIpGMNHBqOvxnY1i6oM4s/0/da"><img src="http://feedads.g.doubleclick.net/~at/6Ds4IVcIpGMNHBqOvxnY1i6oM4s/0/di" border="0" ismap="true" /></a><br />\u000a<a href="http://feedads.g.doubleclick.net/~at/6Ds4IVcIpGMNHBqOvxnY1i6oM4s/1/da"><img src="http://feedads.g.doubleclick.net/~at/6Ds4IVcIpGMNHBqOvxnY1i6oM4s/1/di" border="0" ismap="true" /></a></p>An anonymous reader writes "There is a lot of controversy and a big hullabaloo about Southern California Edison and various other utilities around the country installing smart meters at residential homes. Various action groups claim that these smart meters transmit an unsafe amount of RF and that they are an invasion of privacy. The information out there seems rather spotty and inconsistent &mdash; what do you engineers out there think? Are these things potentially harmful? Are they an invasion of privacy?"<p><div class="share_submission">\u000a<a class="slashpop" href="http://twitter.com/home?status=Ask+Slashdot%3A+Are+Smart+Meters+Safe%3F%3A+http%3A%2F%2Fbit.ly%2FMsW46y"><img src="http://a.fsdn.com/sd/twitter_icon_large.png" /></a>\u000a<a class="slashpop" href="http://www.facebook.com/sharer.php?u=http%3A%2F%2Fask.slashdot.org%2Fstory%2F12%2F07%2F03%2F1546230%2Fask-slashdot-are-smart-meters-safe%3Futm_source%3Dslashdot%26utm_medium%3Dfacebook"><img src="http://a.fsdn.com/sd/facebook_icon_large.png" /></a>\u000a\u000a<a class="nobg" href="http://plus.google.com/share?url=http://ask.slashdot.org/story/12/07/03/1546230/ask-slashdot-are-smart-meters-safe?utm_source=slashdot&utm_medium=googleplus"><img src="http://www.gstatic.com/images/icons/gplus-16.png" alt="Share on Google+" /></a>                                                                                                                                                                              \u000a\u000a\u000a\u000a</div></p><p><a href="http://ask.slashdot.org/story/12/07/03/1546230/ask-slashdot-are-smart-meters-safe?utm_source=rss1.0moreanon&utm_medium=feed">Read more of this story</a> at Slashdot.</p><img src="http://feeds.feedburner.com/~r/Slashdot/slashdot/~4/EOt3s1ZwqU4" height="1" width="1" />
p576
stRp577
sg11
g12
((I2012
I7
I3
I16
I7
I0
I1
I185
I0
t(dtRp578
sg14
(lp579
g1
(g2
g3
(dp580
g17
Vhttp://rss.slashdot.org/~r/Slashdot/slashdot/~3/EOt3s1ZwqU4/ask-slashdot-are-smart-meters-safe
p581
sg19
g20
sg21
g22
stRp582
asg42
(lp583
g1
(g2
g3
(dp584
g45
Vcommunications
p585
sg47
Nsg48
NstRp586
asS'slash_department'
p587
Vcall-on-your-cell-phone-to-find-out
p588
sS'feedburner_origlink'
p589
Vhttp://ask.slashdot.org/story/12/07/03/1546230/ask-slashdot-are-smart-meters-safe?utm_source=rss1.0mainlinkanon&utm_medium=feed
p590
sg7
V2012-07-03T16:07:00+00:00
p591
sS'slash_section'
p592
Vaskslashdot
p593
sg53
g581
sS'slash_hit_parade'
p594
V561,557,394,339,61,34,26
p595
sg137
Vhttp://ask.slashdot.org/story/12/07/03/1546230/ask-slashdot-are-smart-meters-safe?utm_source=rss1.0mainlinkanon&utm_medium=feed
p596
sS'slash_comments'
p597
V561
p598
sg55
VAsk Slashdot: Are Smart Meters Safe?
p599
sg94
Vtimothy
p600
sg143
V<p><a href="http://feedads.g.doubleclick.net/~at/6Ds4IVcIpGMNHBqOvxnY1i6oM4s/0/da"><img src="http://feedads.g.doubleclick.net/~at/6Ds4IVcIpGMNHBqOvxnY1i6oM4s/0/di" border="0" ismap="true" /></a><br />\u000a<a href="http://feedads.g.doubleclick.net/~at/6Ds4IVcIpGMNHBqOvxnY1i6oM4s/1/da"><img src="http://feedads.g.doubleclick.net/~at/6Ds4IVcIpGMNHBqOvxnY1i6oM4s/1/di" border="0" ismap="true" /></a></p>An anonymous reader writes "There is a lot of controversy and a big hullabaloo about Southern California Edison and various other utilities around the country installing smart meters at residential homes. Various action groups claim that these smart meters transmit an unsafe amount of RF and that they are an invasion of privacy. The information out there seems rather spotty and inconsistent &mdash; what do you engineers out there think? Are these things potentially harmful? Are they an invasion of privacy?"<p><div class="share_submission">\u000a<a class="slashpop" href="http://twitter.com/home?status=Ask+Slashdot\u005c%3A+Are+Smart+Meters+Safe\u005c%3F\u005c%3A+http\u005c%3A\u005c%2F\u005c%2Fbit.ly\u005c%2FMsW46y"><img src="http://a.fsdn.com/sd/twitter_icon_large.png" /></a>\u000a<a class="slashpop" href="http://www.facebook.com/sharer.php?u=http\u005c%3A\u005c%2F\u005c%2Fask.slashdot.org\u005c%2Fstory\u005c%2F12\u005c%2F07\u005c%2F03\u005c%2F1546230\u005c%2Fask-slashdot-are-smart-meters-safe\u005c%3Futm_source\u005c%3Dslashdot\u005c%26utm_medium\u005c%3Dfacebook"><img src="http://a.fsdn.com/sd/facebook_icon_large.png" /></a>\u000a\u000a<a class="nobg" href="http://plus.google.com/share?url=http://ask.slashdot.org/story/12/07/03/1546230/ask-slashdot-are-smart-meters-safe?utm_source=slashdot&utm_medium=googleplus"><img src="http://www.gstatic.com/images/icons/gplus-16.png" alt="Share on Google+" /></a>                                                                                                                                                                              \u000a\u000a\u000a\u000a</div></p><p><a href="http://ask.slashdot.org/story/12/07/03/1546230/ask-slashdot-are-smart-meters-safe?utm_source=rss1.0moreanon&utm_medium=feed">Read more of this story</a> at Slashdot.</p><img src="http://feeds.feedburner.com/~r/Slashdot/slashdot/~4/EOt3s1ZwqU4" height="1" width="1" />
p601
sS'title_detail'
p602
g1
(g2
g3
(dp603
g63
S'http://rss.slashdot.org/slashdot/Slashdot'
p604
sg19
S'text/plain'
p605
sg66
Nsg67
g599
stRp606
sg150
(lp607
g81
aV*
astRp608
ag1
(g2
g3
(dp609
S'summary_detail'
p610
g1
(g2
g3
(dp611
g63
S'http://rss.slashdot.org/slashdot/Slashdot'
p612
sg19
S'text/html'
p613
sg66
Nsg67
V<p><a href="http://feedads.g.doubleclick.net/~at/IWXPfUE2V4saagsUhtK6a1GbEcU/0/da"><img src="http://feedads.g.doubleclick.net/~at/IWXPfUE2V4saagsUhtK6a1GbEcU/0/di" border="0" ismap="true" /></a><br />\u000a<a href="http://feedads.g.doubleclick.net/~at/IWXPfUE2V4saagsUhtK6a1GbEcU/1/da"><img src="http://feedads.g.doubleclick.net/~at/IWXPfUE2V4saagsUhtK6a1GbEcU/1/di" border="0" ismap="true" /></a></p>walterbyrd writes with a story at The Inquirer outlining the latest volley in the patent wars surrounding mobile hardware, this time aimed at the new Aus-built Nexus 7 tablet from Google by Nokia, in which the company's spokesman says, "Nokia has more than 40 licensees, mainly for its standards essential patent portfolio, including most of the mobile device manufacturers. Neither Google nor Asus is licensed under our patent portfolio. 'Companies who are not yet licensed under our standard essential patents should simply approach us and sign up for a license.'"<p><div class="share_submission">\u000a<a class="slashpop" href="http://twitter.com/home?status=Nokia%3A+Google's+Nexus+7+Tablet+Infringes+Our+Patents%3A+http%3A%2F%2Fbit.ly%2FLVuuz6"><img src="http://a.fsdn.com/sd/twitter_icon_large.png" /></a>\u000a<a class="slashpop" href="http://www.facebook.com/sharer.php?u=http%3A%2F%2Fyro.slashdot.org%2Fstory%2F12%2F07%2F03%2F1446211%2Fnokia-googles-nexus-7-tablet-infringes-our-patents%3Futm_source%3Dslashdot%26utm_medium%3Dfacebook"><img src="http://a.fsdn.com/sd/facebook_icon_large.png" /></a>\u000a\u000a<a class="nobg" href="http://plus.google.com/share?url=http://yro.slashdot.org/story/12/07/03/1446211/nokia-googles-nexus-7-tablet-infringes-our-patents?utm_source=slashdot&utm_medium=googleplus"><img src="http://www.gstatic.com/images/icons/gplus-16.png" alt="Share on Google+" /></a>                                                                                                                                                                              \u000a\u000a\u000a\u000a</div></p><p><a href="http://yro.slashdot.org/story/12/07/03/1446211/nokia-googles-nexus-7-tablet-infringes-our-patents?utm_source=rss1.0moreanon&utm_medium=feed">Read more of this story</a> at Slashdot.</p><img src="http://feeds.feedburner.com/~r/Slashdot/slashdot/~4/I0rT1bkYKRI" height="1" width="1" />
p614
stRp615
sg11
g12
((I2012
I7
I3
I15
I28
I0
I1
I185
I0
t(dtRp616
sg14
(lp617
g1
(g2
g3
(dp618
g17
Vhttp://rss.slashdot.org/~r/Slashdot/slashdot/~3/I0rT1bkYKRI/nokia-googles-nexus-7-tablet-infringes-our-patents
p619
sg19
g20
sg21
g22
stRp620
asg42
(lp621
g1
(g2
g3
(dp622
g45
Vgoogle
p623
sg47
Nsg48
NstRp624
asS'slash_department'
p625
Vthis-is-a-storm-and-that's-got-ports
p626
sS'feedburner_origlink'
p627
Vhttp://yro.slashdot.org/story/12/07/03/1446211/nokia-googles-nexus-7-tablet-infringes-our-patents?utm_source=rss1.0mainlinkanon&utm_medium=feed
p628
sg7
V2012-07-03T15:28:00+00:00
p629
sS'slash_section'
p630
Vyro
p631
sg53
g619
sS'slash_hit_parade'
p632
V166,161,127,107,35,17,13
p633
sg137
Vhttp://yro.slashdot.org/story/12/07/03/1446211/nokia-googles-nexus-7-tablet-infringes-our-patents?utm_source=rss1.0mainlinkanon&utm_medium=feed
p634
sS'slash_comments'
p635
V166
p636
sg55
VNokia: Google's Nexus 7 Tablet Infringes Our Patents
p637
sg94
Vtimothy
p638
sg143
V<p><a href="http://feedads.g.doubleclick.net/~at/IWXPfUE2V4saagsUhtK6a1GbEcU/0/da"><img src="http://feedads.g.doubleclick.net/~at/IWXPfUE2V4saagsUhtK6a1GbEcU/0/di" border="0" ismap="true" /></a><br />\u000a<a href="http://feedads.g.doubleclick.net/~at/IWXPfUE2V4saagsUhtK6a1GbEcU/1/da"><img src="http://feedads.g.doubleclick.net/~at/IWXPfUE2V4saagsUhtK6a1GbEcU/1/di" border="0" ismap="true" /></a></p>walterbyrd writes with a story at The Inquirer outlining the latest volley in the patent wars surrounding mobile hardware, this time aimed at the new Aus-built Nexus 7 tablet from Google by Nokia, in which the company's spokesman says, "Nokia has more than 40 licensees, mainly for its standards essential patent portfolio, including most of the mobile device manufacturers. Neither Google nor Asus is licensed under our patent portfolio. 'Companies who are not yet licensed under our standard essential patents should simply approach us and sign up for a license.'"<p><div class="share_submission">\u000a<a class="slashpop" href="http://twitter.com/home?status=Nokia\u005c%3A+Google's+Nexus+7+Tablet+Infringes+Our+Patents\u005c%3A+http\u005c%3A\u005c%2F\u005c%2Fbit.ly\u005c%2FLVuuz6"><img src="http://a.fsdn.com/sd/twitter_icon_large.png" /></a>\u000a<a class="slashpop" href="http://www.facebook.com/sharer.php?u=http\u005c%3A\u005c%2F\u005c%2Fyro.slashdot.org\u005c%2Fstory\u005c%2F12\u005c%2F07\u005c%2F03\u005c%2F1446211\u005c%2Fnokia-googles-nexus-7-tablet-infringes-our-patents\u005c%3Futm_source\u005c%3Dslashdot\u005c%26utm_medium\u005c%3Dfacebook"><img src="http://a.fsdn.com/sd/facebook_icon_large.png" /></a>\u000a\u000a<a class="nobg" href="http://plus.google.com/share?url=http://yro.slashdot.org/story/12/07/03/1446211/nokia-googles-nexus-7-tablet-infringes-our-patents?utm_source=slashdot&utm_medium=googleplus"><img src="http://www.gstatic.com/images/icons/gplus-16.png" alt="Share on Google+" /></a>                                                                                                                                                                              \u000a\u000a\u000a\u000a</div></p><p><a href="http://yro.slashdot.org/story/12/07/03/1446211/nokia-googles-nexus-7-tablet-infringes-our-patents?utm_source=rss1.0moreanon&utm_medium=feed">Read more of this story</a> at Slashdot.</p><img src="http://feeds.feedburner.com/~r/Slashdot/slashdot/~4/I0rT1bkYKRI" height="1" width="1" />
p639
sS'title_detail'
p640
g1
(g2
g3
(dp641
g63
S'http://rss.slashdot.org/slashdot/Slashdot'
p642
sg19
S'text/plain'
p643
sg66
Nsg67
g637
stRp644
sg150
(lp645
g81
aV*
astRp646
ag1
(g2
g3
(dp647
S'summary_detail'
p648
g1
(g2
g3
(dp649
g63
S'http://rss.slashdot.org/slashdot/Slashdot'
p650
sg19
S'text/html'
p651
sg66
Nsg67
V<p><a href="http://feedads.g.doubleclick.net/~at/CMDVDK_P_rA6mTHz9m-MreMPDHE/0/da"><img src="http://feedads.g.doubleclick.net/~at/CMDVDK_P_rA6mTHz9m-MreMPDHE/0/di" border="0" ismap="true" /></a><br />\u000a<a href="http://feedads.g.doubleclick.net/~at/CMDVDK_P_rA6mTHz9m-MreMPDHE/1/da"><img src="http://feedads.g.doubleclick.net/~at/CMDVDK_P_rA6mTHz9m-MreMPDHE/1/di" border="0" ismap="true" /></a></p>dartttt writes with word that "Blizzard has banned all Linux users who are playing Diablo III on Linux using Wine." Reader caranha adds that these users have been flagged as "using cheating programs," and that replies from Blizzard support staff so far have upheld these bans.\u000aUpdate: 07/03 16:57 GMT by S :An official response from a Blizzard Community Manager indicates they don't ban people for using Linux. As with most reports of game bans, we have only the word of random gamers that they were banned for the reason they say they were banned.<p><div class="share_submission">\u000a<a class="slashpop" href="http://twitter.com/home?status=Linux+Users+Banned+From+Diablo+III+Servers%3A+http%3A%2F%2Fbit.ly%2FMSXqF0"><img src="http://a.fsdn.com/sd/twitter_icon_large.png" /></a>\u000a<a class="slashpop" href="http://www.facebook.com/sharer.php?u=http%3A%2F%2Fgames.slashdot.org%2Fstory%2F12%2F07%2F03%2F141208%2Flinux-users-banned-from-diablo-iii-servers%3Futm_source%3Dslashdot%26utm_medium%3Dfacebook"><img src="http://a.fsdn.com/sd/facebook_icon_large.png" /></a>\u000a\u000a<a class="nobg" href="http://plus.google.com/share?url=http://games.slashdot.org/story/12/07/03/141208/linux-users-banned-from-diablo-iii-servers?utm_source=slashdot&utm_medium=googleplus"><img src="http://www.gstatic.com/images/icons/gplus-16.png" alt="Share on Google+" /></a>                                                                                                                                                                              \u000a\u000a\u000a\u000a</div></p><p><a href="http://games.slashdot.org/story/12/07/03/141208/linux-users-banned-from-diablo-iii-servers?utm_source=rss1.0moreanon&utm_medium=feed">Read more of this story</a> at Slashdot.</p><img src="http://feeds.feedburner.com/~r/Slashdot/slashdot/~4/b24fXlxeegE" height="1" width="1" />
p652
stRp653
sg11
g12
((I2012
I7
I3
I14
I47
I0
I1
I185
I0
t(dtRp654
sg14
(lp655
g1
(g2
g3
(dp656
g17
Vhttp://rss.slashdot.org/~r/Slashdot/slashdot/~3/b24fXlxeegE/linux-users-banned-from-diablo-iii-servers
p657
sg19
g20
sg21
g22
stRp658
asg42
(lp659
g1
(g2
g3
(dp660
g45
Vgames
p661
sg47
Nsg48
NstRp662
asS'slash_department'
p663
Vheavy-hand-holding-broad-brush
p664
sS'feedburner_origlink'
p665
Vhttp://games.slashdot.org/story/12/07/03/141208/linux-users-banned-from-diablo-iii-servers?utm_source=rss1.0mainlinkanon&utm_medium=feed
p666
sg7
V2012-07-03T14:47:00+00:00
p667
sS'slash_section'
p668
Vgames
p669
sg53
g657
sS'slash_hit_parade'
p670
V443,433,311,256,72,45,29
p671
sg137
Vhttp://games.slashdot.org/story/12/07/03/141208/linux-users-banned-from-diablo-iii-servers?utm_source=rss1.0mainlinkanon&utm_medium=feed
p672
sS'slash_comments'
p673
V443
p674
sg55
VLinux Users Banned From <em>Diablo III</em> Servers
p675
sg94
Vtimothy
p676
sg143
V<p><a href="http://feedads.g.doubleclick.net/~at/CMDVDK_P_rA6mTHz9m-MreMPDHE/0/da"><img src="http://feedads.g.doubleclick.net/~at/CMDVDK_P_rA6mTHz9m-MreMPDHE/0/di" border="0" ismap="true" /></a><br />\u000a<a href="http://feedads.g.doubleclick.net/~at/CMDVDK_P_rA6mTHz9m-MreMPDHE/1/da"><img src="http://feedads.g.doubleclick.net/~at/CMDVDK_P_rA6mTHz9m-MreMPDHE/1/di" border="0" ismap="true" /></a></p>dartttt writes with word that "Blizzard has banned all Linux users who are playing Diablo III on Linux using Wine." Reader caranha adds that these users have been flagged as "using cheating programs," and that replies from Blizzard support staff so far have upheld these bans.\u000aUpdate: 07/03 16:57 GMT by S :An official response from a Blizzard Community Manager indicates they don't ban people for using Linux. As with most reports of game bans, we have only the word of random gamers that they were banned for the reason they say they were banned.<p><div class="share_submission">\u000a<a class="slashpop" href="http://twitter.com/home?status=Linux+Users+Banned+From+Diablo+III+Servers\u005c%3A+http\u005c%3A\u005c%2F\u005c%2Fbit.ly\u005c%2FMSXqF0"><img src="http://a.fsdn.com/sd/twitter_icon_large.png" /></a>\u000a<a class="slashpop" href="http://www.facebook.com/sharer.php?u=http\u005c%3A\u005c%2F\u005c%2Fgames.slashdot.org\u005c%2Fstory\u005c%2F12\u005c%2F07\u005c%2F03\u005c%2F141208\u005c%2Flinux-users-banned-from-diablo-iii-servers\u005c%3Futm_source\u005c%3Dslashdot\u005c%26utm_medium\u005c%3Dfacebook"><img src="http://a.fsdn.com/sd/facebook_icon_large.png" /></a>\u000a\u000a<a class="nobg" href="http://plus.google.com/share?url=http://games.slashdot.org/story/12/07/03/141208/linux-users-banned-from-diablo-iii-servers?utm_source=slashdot&utm_medium=googleplus"><img src="http://www.gstatic.com/images/icons/gplus-16.png" alt="Share on Google+" /></a>                                                                                                                                                                              \u000a\u000a\u000a\u000a</div></p><p><a href="http://games.slashdot.org/story/12/07/03/141208/linux-users-banned-from-diablo-iii-servers?utm_source=rss1.0moreanon&utm_medium=feed">Read more of this story</a> at Slashdot.</p><img src="http://feeds.feedburner.com/~r/Slashdot/slashdot/~4/b24fXlxeegE" height="1" width="1" />
p677
sS'title_detail'
p678
g1
(g2
g3
(dp679
g63
S'http://rss.slashdot.org/slashdot/Slashdot'
p680
sg19
S'text/plain'
p681
sg66
Nsg67
g675
stRp682
sg150
(lp683
g81
aV*
astRp684
asS'canto_update'
p685
F1341363348.0879149
sS'headers'
p686
(dp687
S'x-xss-protection'
p688
S'1; mode=block'
p689
sS'x-content-type-options'
p690
S'nosniff'
p691
sS'expires'
p692
S'Wed, 04 Jul 2012 00:55:46 GMT'
p693
sS'server'
p694
S'GSE'
p695
sS'last-modified'
p696
S'Wed, 04 Jul 2012 00:51:35 GMT'
p697
sS'connection'
p698
S'close'
p699
sS'etag'
p700
S'RNbLmY9mlL2POSvrfpe2ZRheBeI'
p701
sS'cache-control'
p702
S'private, max-age=0'
p703
sS'date'
p704
S'Wed, 04 Jul 2012 00:55:46 GMT'
p705
sS'content-type'
p706
S'text/xml; charset=ISO-8859-1'
p707
ssg17
S'http://rss.slashdot.org/slashdot/Slashdot'
p708
sS'version'
p709
S'rss10'
p710
sg150
(lp711
sS'etag'
p712
g701
sS'namespaces'
p713
(dp714
S''
Vhttp://www.w3.org/2005/Atom
p715
sS'sy'
p716
Vhttp://purl.org/rss/1.0/modules/syndication/
p717
sS'taxo'
p718
Vhttp://purl.org/rss/1.0/modules/taxonomy/
p719
sS'admin'
p720
Vhttp://webns.net/mvcb/
p721
sS'dc'
p722
Vhttp://purl.org/dc/elements/1.1/
p723
sS'content'
p724
Vhttp://purl.org/rss/1.0/modules/content/
p725
sS'rdf'
p726
Vhttp://www.w3.org/1999/02/22-rdf-syntax-ns#
p727
sS'slash'
p728
Vhttp://purl.org/rss/1.0/modules/slash/
p729
sS'feedburner'
p730
Vhttp://rssnamespace.org/feedburner/ext/1.0
p731
ssS'canto_version'
p732
(I0
I7
I10
tp733
stRp734
.