ccopy_reg
_reconstructor
p1
(ccanto.feedparser_builtin
FeedParserDict
p2
c__builtin__
dict
p3
(dp4
S'feed'
p5
g1
(g2
g3
(dp6
S'title_detail'
p7
g1
(g2
g3
(dp8
S'base'
p9
Vhttp://kerneltrap.org
p10
sS'type'
p11
S'text/plain'
p12
sS'language'
p13
NsS'value'
p14
VKernelTrap
p15
stRp16
sS'subtitle'
p17
VKernelTrap is a web community devoted to sharing the latest in kernel development news.
p18
sS'links'
p19
(lp20
g1
(g2
g3
(dp21
S'href'
p22
Vhttp://kerneltrap.org
p23
sg11
S'text/html'
p24
sS'rel'
p25
S'alternate'
p26
stRp27
asg13
Ven-local
p28
sS'title'
p29
g15
sS'link'
p30
g23
sS'subtitle_detail'
p31
g1
(g2
g3
(dp32
g9
Vhttp://kerneltrap.org
p33
sg11
S'text/html'
p34
sg13
Nsg14
g18
stRp35
stRp36
sS'status'
p37
I200
sS'updated'
p38
ctime
struct_time
p39
((I2012
I7
I4
I0
I55
I47
I2
I186
I0
t(dtRp40
sS'encoding'
p41
S'utf-8'
p42
sS'bozo'
p43
I0
sS'entries'
p44
(lp45
g1
(g2
g3
(dp46
S'summary_detail'
p47
g1
(g2
g3
(dp48
g9
Vhttp://kerneltrap.org
p49
sg11
S'text/html'
p50
sg13
Nsg14
V<div class="taxonomy-images"><a href="http://kerneltrap.org/news/linux" class="taxonomy-image-links"><img src="http://kerneltrap.org/files/category_pictures/K-Linux.gif" alt="Linux news" title="Linux news" width="75" height="75" /></a></div><!-- google_ad_section_start --><p>"<em>It's been two weeks rather than the usual one, because we've been hunting a really annoying VM regression that not a lot of people seem to have seen, but I didn't want to release an -rc4 with it,</em>" <a href="http://kerneltrap.org/mailarchive/linux-kernel/2010/4/13/4558076">began Linux creator Linus Torvalds</a>, announcing the <a href="http://kerneltrap.org/mailarchive/git-commits-head/2010/4/13/31838">2.6.34-rc4</a> Linux kernel.  He explained, "<i>we had the choice of either reverting all the anon-vma scalability improvements, or finding out exactly what caused the regression and fixing it.  And we got pretty close to the point where I was going to just revert it all.</i>"  Linus continued:</p>\u000a<blockquote><p>"Absolutely _huge_ kudos to Borislav Petkov who reported the problem and was able to not just reliably reproduce it, but also test new patches to try to narrow things down at a moments notice. The thing took ten days of emails flying back and forth, and Borislav was there all the time, day and night, through several patches that tried to fix it (several real bugs, but not the one he hit) and lots of patches to just add instrumentation to get us nearer to the cause of the problem.  And finally, today, confirmation that we actually nailed the problem. So  if anybody has been seeing a oops (or sometimes a GP fault) in  page_referenced(), that should be gone now."</p></blockquote>\u000a<p>As for the rest of the changes, Linus noted, "<em>the bulk of the changes come from drivers - a new network driver (cxgb4), but also updates to the radeon and nouveau drivers.  And then there is the random updates everywhere.</em>"  Read on for the full changelog.</p>\u000a<!-- google_ad_section_end --><p><a href="http://kerneltrap.org/Linux/2.6.34-rc4_Hunting_A_Really_Annoying_VM_Regression" target="_blank">read more</a></p>
p51
stRp52
sS'updated_parsed'
p53
g39
((I2010
I4
I13
I5
I16
I30
I1
I103
I0
t(dtRp54
sg19
(lp55
g1
(g2
g3
(dp56
g22
Vhttp://kerneltrap.org/Linux/2.6.34-rc4_Hunting_A_Really_Annoying_VM_Regression
p57
sg11
g24
sg25
g26
stRp58
asg29
VLinux: 2.6.34-rc4, "Hunting A Really Annoying VM Regression"
p59
sS'tags'
p60
(lp61
g1
(g2
g3
(dp62
S'term'
p63
V-rc
p64
sS'scheme'
p65
Vhttp://kerneltrap.org/-rc
p66
sS'label'
p67
NstRp68
ag1
(g2
g3
(dp69
g63
V-rc4
p70
sg65
Vhttp://kerneltrap.org/taxonomy/term/539
p71
sg67
NstRp72
ag1
(g2
g3
(dp73
g63
V2.6.34
p74
sg65
Vhttp://kerneltrap.org/taxonomy/term/4263
p75
sg67
NstRp76
ag1
(g2
g3
(dp77
g63
VBorislav Petkov
p78
sg65
Vhttp://kerneltrap.org/taxonomy/term/4253
p79
sg67
NstRp80
ag1
(g2
g3
(dp81
g63
Vcxgb4
p82
sg65
Vhttp://kerneltrap.org/taxonomy/term/4273
p83
sg67
NstRp84
ag1
(g2
g3
(dp85
g63
VLinus Torvalds
p86
sg65
Vhttp://kerneltrap.org/Linus_Torvalds
p87
sg67
NstRp88
ag1
(g2
g3
(dp89
g63
VLinux
p90
sg65
Vhttp://kerneltrap.org/Linux
p91
sg67
NstRp92
ag1
(g2
g3
(dp93
g63
Vnouveau
p94
sg65
Vhttp://kerneltrap.org/taxonomy/term/4293
p95
sg67
NstRp96
ag1
(g2
g3
(dp97
g63
Vradeon
p98
sg65
Vhttp://kerneltrap.org/taxonomy/term/4283
p99
sg67
NstRp100
ag1
(g2
g3
(dp101
g63
Vregressions
p102
sg65
Vhttp://kerneltrap.org/taxonomy/term/278
p103
sg67
NstRp104
ag1
(g2
g3
(dp105
g63
Vvm
p106
sg65
Vhttp://kerneltrap.org/taxonomy/term/456
p107
sg67
NstRp108
ag1
(g2
g3
(dp109
g63
VLinux news
p110
sg65
Vhttp://kerneltrap.org/news/linux
p111
sg67
NstRp112
asg38
VTue, 13 Apr 2010 05:16:30 +0000
p113
sS'comments'
p114
Vhttp://kerneltrap.org/Linux/2.6.34-rc4_Hunting_A_Really_Annoying_VM_Regression#comments
p115
sS'summary'
p116
g51
sS'guidislink'
p117
I00
sS'title_detail'
p118
g1
(g2
g3
(dp119
g9
Vhttp://kerneltrap.org
p120
sg11
S'text/plain'
p121
sg13
Nsg14
g59
stRp122
sg30
g57
sS'author'
p123
VJeremy
p124
sS'canto_state'
p125
(lp126
g15
aV*
asS'id'
p127
Vhttp://kerneltrap.org/56443 at http://kerneltrap.org
p128
stRp129
ag1
(g2
g3
(dp130
S'summary_detail'
p131
g1
(g2
g3
(dp132
g9
Vhttp://kerneltrap.org
p133
sg11
S'text/html'
p134
sg13
Nsg14
V<div class="taxonomy-images"><a href="http://kerneltrap.org/news/linux" class="taxonomy-image-links"><img src="http://kerneltrap.org/files/category_pictures/K-Linux.gif" alt="Linux news" title="Linux news" width="75" height="75" /></a></div><!-- google_ad_section_start --><p>"<i>If you're wondering why I'm taking a long time to respond to your patches,</i>", began <a href="http://kerneltrap.org/Theodore_Tso">Theodore Ts'o</a> on the linux-ext4 mailing list, <a href="http://kerneltrap.org/mailarchive/linux-ext4/2010/4/6/6884054/thread">in a thread</a> that offered much insight into how and why to properly submit and test patches. "<i>Patches that are accepted into mainline should do one and only one thing,</i>" Ted continued, "<i>so if someone suggests that you make changes to your submitted patch, ideally what you should do is to resubmit the patch with the fixes --- and not submit a patch which is a delta to the previous one.</i>"  He also noted that patch submitters often greatly outnumber maintainers dictating a higher standard of quality, "<i>consider that for some maintainers, there may be 10 or 20 or 30 or more patch submitters in their subsystem.  With that kind of submitter-to-maintainer ratio, the patch submitter simply has to do much more of the work, since otherwise the subsystem maintainer simply can't keep up.</i>"</p>\u000a<p>Ted went on to acknowledge, "<i>I happen to believe that we need to encourage newcomers to the kernel developer community, and so I spend more time mentoring people who are new to the process.</i>"  He noted that his time was finite however, and that patches are accepted more quickly when they are easy to review and integrate.  Regarding the filesystem for which the patches had been submitted, he added, "<i><a href="http://kerneltrap.org/ext4">Ext4</a> is actually quite stable at this point.  Very large numbers of people are using it, and most users are quite happy.</i>"  For this reason, he pointed out that it is even more critical that the patches merged be of high quality.  That said, he continued, "<i>there is no such thing as code which is not buggy.  For any non-trivial program, it's almost certain there are bugs. [...] Ext4 is not exempt from these fundamental laws of software engineering.  'Code is always buggy until the last user of the program dies'.</i>"  He tied this back to the importance of testing patches before submitting, "<i>keep in mind that the maxim that code which is not buggy also applies to your patches.</i>"</p>\u000a<!-- google_ad_section_end --><p><a href="http://kerneltrap.org/Linux/Properly_Creating_And_Testing_Patches" target="_blank">read more</a></p>
p135
stRp136
sg53
g39
((I2010
I4
I9
I20
I18
I27
I4
I99
I0
t(dtRp137
sg19
(lp138
g1
(g2
g3
(dp139
g22
Vhttp://kerneltrap.org/Linux/Properly_Creating_And_Testing_Patches
p140
sg11
g24
sg25
g26
stRp141
asg29
VLinux: Properly Creating And Testing Patches
p142
sg60
(lp143
g1
(g2
g3
(dp144
g63
Vbugs
p145
sg65
Vhttp://kerneltrap.org/bugs
p146
sg67
NstRp147
ag1
(g2
g3
(dp148
g63
Vdevelopment process
p149
sg65
Vhttp://kerneltrap.org/development_process
p150
sg67
NstRp151
ag1
(g2
g3
(dp152
g63
Vext4
p153
sg65
Vhttp://kerneltrap.org/ext4
p154
sg67
NstRp155
ag1
(g2
g3
(dp156
g63
VHOWTO
p157
sg65
Vhttp://kerneltrap.org/HOWTO
p158
sg67
NstRp159
ag1
(g2
g3
(dp160
g63
Vpatch
p161
sg65
Vhttp://kerneltrap.org/taxonomy/term/583
p162
sg67
NstRp163
ag1
(g2
g3
(dp164
g63
VTheodore Ts'o
p165
sg65
Vhttp://kerneltrap.org/Theodore_Tso
p166
sg67
NstRp167
ag1
(g2
g3
(dp168
g63
VLinux news
p169
sg65
Vhttp://kerneltrap.org/news/linux
p170
sg67
NstRp171
asg38
VFri, 09 Apr 2010 20:18:27 +0000
p172
sS'comments'
p173
Vhttp://kerneltrap.org/Linux/Properly_Creating_And_Testing_Patches#comments
p174
sg116
g135
sg117
I00
sS'title_detail'
p175
g1
(g2
g3
(dp176
g9
Vhttp://kerneltrap.org
p177
sg11
S'text/plain'
p178
sg13
Nsg14
g142
stRp179
sg30
g140
sg123
VJeremy
p180
sg125
(lp181
g15
aV*
asg127
Vhttp://kerneltrap.org/56223 at http://kerneltrap.org
p182
stRp183
ag1
(g2
g3
(dp184
S'summary_detail'
p185
g1
(g2
g3
(dp186
g9
Vhttp://kerneltrap.org
p187
sg11
S'text/html'
p188
sg13
Nsg14
V<div class="taxonomy-images"><a href="http://kerneltrap.org/news/linux" class="taxonomy-image-links"><img src="http://kerneltrap.org/files/category_pictures/K-Linux.gif" alt="Linux news" title="Linux news" width="75" height="75" /></a></div><!-- google_ad_section_start --><p><a href="http://kerneltrap.org/Mel_Gorman">Mel Gorman</a> posted the <a href="http://kerneltrap.org/mailarchive/linux-kernel/2010/4/2/4554850">seventh version</a> of his Memory Compaction patches asking, "<i>are there any further obstacles to merging?</i>"  The patches, <a href="http://kerneltrap.org/node/8292">first posted</a> in May of 2007, provide a mechanism for moving GFP_MOVABLE pages into a smaller number of pageblocks, reducing externally fragmented memory.  Mel explains that 'compaction' is another method of defragmenting memory, "<i>for example, lumpy reclaim is a form of defragmentation as was slub 'defragmentation' (really a form of targeted reclaim). Hence, this is called 'compaction' to distinguish it from other forms of defragmentation.</i>"</p>\u000a<p>The core compaction patch explains that memory is compacted in a zone by relocating movable pages towards the end of the zone:</p>\u000a<blockquote><p>"A single compaction run involves a migration scanner and a free scanner.  Both scanners operate on pageblock-sized areas in the zone. The migration scanner starts at the bottom of the zone and searches for all movable pages within each area, isolating them onto a private list called migratelist.  The free scanner starts at the top of the zone and searches for suitable areas and consumes the free pages within making them available for the migration scanner. The pages isolated for migration are then migrated to the newly isolated free pages."</p></blockquote>\u000a<!-- google_ad_section_end --><p><a href="http://kerneltrap.org/Linux/Memory_Compaction" target="_blank">read more</a></p>
p189
stRp190
sg53
g39
((I2010
I4
I3
I0
I11
I38
I5
I93
I0
t(dtRp191
sg19
(lp192
g1
(g2
g3
(dp193
g22
Vhttp://kerneltrap.org/Linux/Memory_Compaction
p194
sg11
g24
sg25
g26
stRp195
asg29
VLinux: Memory Compaction
p196
sg60
(lp197
g1
(g2
g3
(dp198
g63
Vcompacting memory
p199
sg65
Vhttp://kerneltrap.org/taxonomy/term/251
p200
sg67
NstRp201
ag1
(g2
g3
(dp202
g63
Vdefragmentation
p203
sg65
Vhttp://kerneltrap.org/taxonomy/term/866
p204
sg67
NstRp205
ag1
(g2
g3
(dp206
g63
VLinux
p207
sg65
Vhttp://kerneltrap.org/Linux
p208
sg67
NstRp209
ag1
(g2
g3
(dp210
g63
VMel Gorman
p211
sg65
Vhttp://kerneltrap.org/mel_gorman
p212
sg67
NstRp213
ag1
(g2
g3
(dp214
g63
Vmemory
p215
sg65
Vhttp://kerneltrap.org/memory
p216
sg67
NstRp217
ag1
(g2
g3
(dp218
g63
Vpatch
p219
sg65
Vhttp://kerneltrap.org/taxonomy/term/583
p220
sg67
NstRp221
ag1
(g2
g3
(dp222
g63
VRAM
p223
sg65
Vhttp://kerneltrap.org/taxonomy/term/477
p224
sg67
NstRp225
ag1
(g2
g3
(dp226
g63
VLinux news
p227
sg65
Vhttp://kerneltrap.org/news/linux
p228
sg67
NstRp229
asg38
VSat, 03 Apr 2010 00:11:38 +0000
p230
sS'comments'
p231
Vhttp://kerneltrap.org/Linux/Memory_Compaction#comments
p232
sg116
g189
sg117
I00
sS'title_detail'
p233
g1
(g2
g3
(dp234
g9
Vhttp://kerneltrap.org
p235
sg11
S'text/plain'
p236
sg13
Nsg14
g196
stRp237
sg30
g194
sg123
VJeremy
p238
sg125
(lp239
g15
aV*
asg127
Vhttp://kerneltrap.org/55793 at http://kerneltrap.org
p240
stRp241
ag1
(g2
g3
(dp242
S'summary_detail'
p243
g1
(g2
g3
(dp244
g9
Vhttp://kerneltrap.org
p245
sg11
S'text/html'
p246
sg13
Nsg14
V<div class="taxonomy-images"><a href="http://kerneltrap.org/news/linux" class="taxonomy-image-links"><img src="http://kerneltrap.org/files/category_pictures/K-Linux.gif" alt="Linux news" title="Linux news" width="75" height="75" /></a></div><!-- google_ad_section_start --><p>Arnd Bergmann noted that he's working on removing the <a href="http://kerneltrap.org/BKL">BKL</a> from the <a href="http://kerneltrap.org/Linux">Linux</a> kernel, "<i>I've spent some time continuing the work of the people on Cc and many others to remove the big kernel lock from Linux and I now have [a] bkl-removal branch in my git tree</i>".  He went on to explain that his branch is working, and lets him run the Linux kernel, "<i>on [a] quad-core machine with the only users of the BKL being mostly obscure device driver modules.</i>"  Arnd noted that this effort has a long history, "<i>the oldest patch in this series is roughly eight years old and is Willy's patch to remove the BKL from fs/locks.c, and I took a series of patches from Jan that removes it from most of the VFS.</i>"</p>\u000a<p>Arnd noted that his patch adds a global mutex to the TTY layer, which he called the 'Big TTY Mutex' and described as, "the basic idea here is to make recursive locking and the release-on-sleep explicit, so every mutex_lock, wait_event, workqueue_flush and schedule in the TTY layer now explicitly releases the BTM before blocking."  <a href="http://kerneltrap.org/Alan_Cox">Alan Cox</a> suggested that this portion of the patch was best dropped for now, "<i>it would be nice to get the other bits in first removing BKL from most of the kernel and building kernels which are non BKL except for the tty layer. That (after <a href="http://kerneltrap.org/Ingo_Molnar">Ingo</a>'s box from hell has run it a bit) would reasonably test the assertion that the tty layer has no BKL requirements that are driven by [code] external to tty layer code.</i>"  <a href="http://kerneltrap.org/Andrew_Morton">Andrew Morton</a> suggested that the patches be pushed upstream to their appropriate maintainers for an additional sanity check, "<i>Seems that there might be a few tricksy bits in here.  Please do push at least the non-obvious parts out to the relevant people.</i>"</p>\u000a<!-- google_ad_section_end --><p><a href="http://kerneltrap.org/Linux/Removing_The_Big_Kernel_Lock2" target="_blank">read more</a></p>
p247
stRp248
sg53
g39
((I2010
I4
I1
I14
I52
I12
I3
I91
I0
t(dtRp249
sg19
(lp250
g1
(g2
g3
(dp251
g22
Vhttp://kerneltrap.org/Linux/Removing_The_Big_Kernel_Lock2
p252
sg11
g24
sg25
g26
stRp253
asg29
VLinux: Removing The Big Kernel Lock
p254
sg60
(lp255
g1
(g2
g3
(dp256
g63
VAlan Cox
p257
sg65
Vhttp://kerneltrap.org/Alan_Cox
p258
sg67
NstRp259
ag1
(g2
g3
(dp260
g63
VAndrew Morton
p261
sg65
Vhttp://kerneltrap.org/Andrew_Morton
p262
sg67
NstRp263
ag1
(g2
g3
(dp264
g63
VArnd Bergmann
p265
sg65
Vhttp://kerneltrap.org/taxonomy/term/1274
p266
sg67
NstRp267
ag1
(g2
g3
(dp268
g63
VBKL
p269
sg65
Vhttp://kerneltrap.org/BKL
p270
sg67
NstRp271
ag1
(g2
g3
(dp272
g63
VIngo Molnar
p273
sg65
Vhttp://kerneltrap.org/Ingo_Molnar
p274
sg67
NstRp275
ag1
(g2
g3
(dp276
g63
VLinux
p277
sg65
Vhttp://kerneltrap.org/Linux
p278
sg67
NstRp279
ag1
(g2
g3
(dp280
g63
VLinux news
p281
sg65
Vhttp://kerneltrap.org/news/linux
p282
sg67
NstRp283
asg38
VThu, 01 Apr 2010 14:52:12 +0000
p284
sS'comments'
p285
Vhttp://kerneltrap.org/Linux/Removing_The_Big_Kernel_Lock2#comments
p286
sg116
g247
sg117
I00
sS'title_detail'
p287
g1
(g2
g3
(dp288
g9
Vhttp://kerneltrap.org
p289
sg11
S'text/plain'
p290
sg13
Nsg14
g254
stRp291
sg30
g252
sg123
VJeremy
p292
sg125
(lp293
g15
aV*
asg127
Vhttp://kerneltrap.org/55703 at http://kerneltrap.org
p294
stRp295
ag1
(g2
g3
(dp296
S'summary_detail'
p297
g1
(g2
g3
(dp298
g9
Vhttp://kerneltrap.org
p299
sg11
S'text/html'
p300
sg13
Nsg14
V<div class="taxonomy-images"><a href="http://kerneltrap.org/taxonomy/term/182" class="taxonomy-image-links"><img src="http://kerneltrap.org/files/category_pictures/K-trap.gif" alt="KernelTrap Changes and News" title="KernelTrap changes and news." width="75" height="75" /></a></div><!-- google_ad_section_start --><p>KernelTrap has been updated to Drupal 6.  We're running a fair bit of custom code, so please let me know if you find anything broken or if any of your favorite features are missing.  And yes, this upgrade is the first step toward getting regular posts on the website again.</p>\u000a<!-- google_ad_section_end --><p><a href="http://kerneltrap.org/forum/website_updated" target="_blank">read more</a></p>
p301
stRp302
sg53
g39
((I2009
I7
I22
I4
I44
I1
I2
I203
I0
t(dtRp303
sg19
(lp304
g1
(g2
g3
(dp305
g22
Vhttp://kerneltrap.org/forum/website_updated
p306
sg11
g24
sg25
g26
stRp307
asg29
VWebsite Updated
p308
sg60
(lp309
g1
(g2
g3
(dp310
g63
VDrupal
p311
sg65
Vhttp://kerneltrap.org/taxonomy/term/303
p312
sg67
NstRp313
ag1
(g2
g3
(dp314
g63
VKernelTrap
p315
sg65
Vhttp://kerneltrap.org/taxonomy/term/295
p316
sg67
NstRp317
ag1
(g2
g3
(dp318
g63
VKernelTrap Changes and News
p319
sg65
Vhttp://kerneltrap.org/taxonomy/term/182
p320
sg67
NstRp321
asg38
VWed, 22 Jul 2009 04:44:01 +0000
p322
sS'comments'
p323
Vhttp://kerneltrap.org/forum/website_updated#comments
p324
sg116
g301
sg117
I00
sS'title_detail'
p325
g1
(g2
g3
(dp326
g9
Vhttp://kerneltrap.org
p327
sg11
S'text/plain'
p328
sg13
Nsg14
g308
stRp329
sg30
g306
sg123
VJeremy
p330
sg125
(lp331
g15
aV*
asg127
Vhttp://kerneltrap.org/17273 at http://kerneltrap.org
p332
stRp333
ag1
(g2
g3
(dp334
S'summary_detail'
p335
g1
(g2
g3
(dp336
g9
Vhttp://kerneltrap.org
p337
sg11
S'text/html'
p338
sg13
Nsg14
V<div class="taxonomy-images"><a href="http://kerneltrap.org/news/linux" class="taxonomy-image-links"><img src="http://kerneltrap.org/files/category_pictures/K-Linux.gif" alt="Linux news" title="Linux news" width="75" height="75" /></a></div><!-- google_ad_section_start --><p><a href="http://git.kernel.org/?p=linux/kernel/git/torvalds/linux-2.6.git;a=blob;f=MAINTAINERS;h=3d29fa3898883a51626b527ab0f0b21badb815ce;hb=HEAD#l3859">Netfilter maintainer</a> Patrick McHardy <a href="http://kerneltrap.org/mailarchive/linux-netdev/2009/3/18/5188334">recently announced</a> a first alpha-release of nftables, slated to eventually replace iptables as the standard Linux packet filtering engine.  Nftables aims to simplify the kernel ABI, reduce code duplication, improve error reporting, and provide more efficient execution, storage and updates of filtering rules.  Patrick began with a high level overview of the three pieces that comprise the firewall, "<i>the kernel provides a netlink configuration interface, as well as runtime ruleset evaluation using a small classification language interpreter. libnl contains the low-level functions for communicating with the kernel, the nftables frontend is what the user interacts with.</i>"  An <a href="http://lwn.net/Articles/324989/">insightful overview</a> can be found on lwn.net.</p>\u000a<p>Patrick explained that data is represented internally in a generic fashion, "<i>meaning it's possible to use any matching feature (ranges, masks, set lookups etc.) with any kind of data.</i>"  He went on to add, "<i>the kernel doesn't have a distinction between matches and targets anymore, operations can be arbitrarily chained, fixing a common complaint that multiple rules are required to f.i. log and drop a packet. Terminal operations will stop evaluation of a rule, even if further operations are specified.</i>"  Speaking about the the userspace frontend, he noted, "<i>the classification language is based on a real grammar that is parsed by a bison-generated parser (currently, it might have to be replaced) and converted to a syntax tree.</i>"  Patrick continued, "<i>the frontend supports both dealing with only a single rule at a time for incremental operations, as well as parsing entire files. In the later case verification is performed on all rules and changes are only made after full validation. Currently not implemented, but planned, is transactional semantic where changes are rolled back when the kernel reports an error.</i>"</p>\u000a<!-- google_ad_section_end --><p><a href="http://kerneltrap.org/Linux/First_Release_Of_nftables" target="_blank">read more</a></p>
p339
stRp340
sg53
g39
((I2009
I4
I1
I21
I5
I48
I2
I91
I0
t(dtRp341
sg19
(lp342
g1
(g2
g3
(dp343
g22
Vhttp://kerneltrap.org/Linux/First_Release_Of_nftables
p344
sg11
g24
sg25
g26
stRp345
asg29
VLinux: First Release Of nftables
p346
sg60
(lp347
g1
(g2
g3
(dp348
g63
Viptables
p349
sg65
Vhttp://kerneltrap.org/taxonomy/term/488
p350
sg67
NstRp351
ag1
(g2
g3
(dp352
g63
VLinux
p353
sg65
Vhttp://kerneltrap.org/Linux
p354
sg67
NstRp355
ag1
(g2
g3
(dp356
g63
Vnftables
p357
sg65
Vhttp://kerneltrap.org/taxonomy/term/4163
p358
sg67
NstRp359
ag1
(g2
g3
(dp360
g63
Vpacket filter
p361
sg65
Vhttp://kerneltrap.org/packet_filter
p362
sg67
NstRp363
ag1
(g2
g3
(dp364
g63
VPatrick McHardy
p365
sg65
Vhttp://kerneltrap.org/taxonomy/term/4173
p366
sg67
NstRp367
ag1
(g2
g3
(dp368
g63
Vsecurity
p369
sg65
Vhttp://kerneltrap.org/security
p370
sg67
NstRp371
ag1
(g2
g3
(dp372
g63
VLinux news
p373
sg65
Vhttp://kerneltrap.org/news/linux
p374
sg67
NstRp375
asg38
VWed, 01 Apr 2009 21:05:48 +0000
p376
sS'comments'
p377
Vhttp://kerneltrap.org/Linux/First_Release_Of_nftables#comments
p378
sg116
g339
sg117
I00
sS'title_detail'
p379
g1
(g2
g3
(dp380
g9
Vhttp://kerneltrap.org
p381
sg11
S'text/plain'
p382
sg13
Nsg14
g346
stRp383
sg30
g344
sg123
VJeremy
p384
sg125
(lp385
g15
aV*
asg127
Vhttp://kerneltrap.org/55723 at http://kerneltrap.org
p386
stRp387
ag1
(g2
g3
(dp388
S'summary_detail'
p389
g1
(g2
g3
(dp390
g9
Vhttp://kerneltrap.org
p391
sg11
S'text/html'
p392
sg13
Nsg14
V<div class="taxonomy-images"><a href="http://kerneltrap.org/news/linux" class="taxonomy-image-links"><img src="http://kerneltrap.org/files/category_pictures/K-Linux.gif" alt="Linux news" title="Linux news" width="75" height="75" /></a></div><!-- google_ad_section_start --><p>"<i>So yet another week, another -rc,</i>" began Linux creator, Linus Torvalds, <a href="http://kerneltrap.org/mailarchive/linux-kernel/2008/9/29/3450454">announcing the 2.6.27-rc8 Linux kernel</a>.  He continued, "<i>this one should be the last one: we're certainly not running out of regressions, but at the same time, at some point I just have to pick some point, and on the whole the regressions don't look _too_ scary. And -rc8 obviously does fix more of them.</i>"  Linus went on to note that most of the changes since -rc7 are small, "<i>and there aren't even a whole lot of them.</i>"</p>\u000a<p>Jiri Kosina cautioned that there is still an unknown bug affecting the e1000e driver currently in the 2.6.27 kernel, "<i>rendering the cards unusable for most of the i-am-not-a-hacker users (and remember, even Dave Airlie bricked his laptop completely to death, when trying to restore eeprom contents)</i>"  When asked how to duplicate the bug, Jiri noted that the inability to reliably reproduce the bug added to the difficulty in debugging the problem, "<i>apparently it is some kind of race, as it usually takes multiple cycles to trigger</i>".</p>\u000a<!-- google_ad_section_end --><p><a href="http://kerneltrap.org/Linux/2.6.27-rc8_This_One_Should_Be_The_Last_One" target="_blank">read more</a></p>
p393
stRp394
sg53
g39
((I2008
I9
I30
I15
I55
I51
I1
I274
I0
t(dtRp395
sg19
(lp396
g1
(g2
g3
(dp397
g22
Vhttp://kerneltrap.org/Linux/2.6.27-rc8_This_One_Should_Be_The_Last_One
p398
sg11
g24
sg25
g26
stRp399
asg29
V2.6.27-rc8, "This One Should Be The Last One"
p400
sg60
(lp401
g1
(g2
g3
(dp402
g63
V-rc
p403
sg65
Vhttp://kerneltrap.org/-rc
p404
sg67
NstRp405
ag1
(g2
g3
(dp406
g63
V-rc8
p407
sg65
Vhttp://kerneltrap.org/-rc8
p408
sg67
NstRp409
ag1
(g2
g3
(dp410
g63
V2.6.27
p411
sg65
Vhttp://kerneltrap.org/taxonomy/term/1305
p412
sg67
NstRp413
ag1
(g2
g3
(dp414
g63
V2.6.27-rc8
p415
sg65
Vhttp://kerneltrap.org/taxonomy/term/1327
p416
sg67
NstRp417
ag1
(g2
g3
(dp418
g63
VLinux
p419
sg65
Vhttp://kerneltrap.org/Linux
p420
sg67
NstRp421
ag1
(g2
g3
(dp422
g63
VLinux news
p423
sg65
Vhttp://kerneltrap.org/news/linux
p424
sg67
NstRp425
asg38
VTue, 30 Sep 2008 15:55:51 +0000
p426
sS'comments'
p427
Vhttp://kerneltrap.org/Linux/2.6.27-rc8_This_One_Should_Be_The_Last_One#comments
p428
sg116
g393
sg117
I00
sS'title_detail'
p429
g1
(g2
g3
(dp430
g9
Vhttp://kerneltrap.org
p431
sg11
S'text/plain'
p432
sg13
Nsg14
g400
stRp433
sg30
g398
sg123
VJeremy
p434
sg125
(lp435
g15
aV*
asg127
Vhttp://kerneltrap.org/16626 at http://kerneltrap.org
p436
stRp437
ag1
(g2
g3
(dp438
S'summary_detail'
p439
g1
(g2
g3
(dp440
g9
Vhttp://kerneltrap.org
p441
sg11
S'text/html'
p442
sg13
Nsg14
V<!-- google_ad_section_start --><p>"The _real_ bug is clearly in the hardware design that allows you to brick those things without apparently even having a lock bit.  I'm hoping Intel doesn't treat this as just a software bug. Some hw designer should be thinking hard about which orifice they put their head up in."</p>\u000a<!-- google_ad_section_end -->
p443
stRp444
sg53
g39
((I2008
I9
I30
I15
I38
I36
I1
I274
I0
t(dtRp445
sg19
(lp446
g1
(g2
g3
(dp447
g22
Vhttp://kerneltrap.org/Quote/The_Real_Bug
p448
sg11
g24
sg25
g26
stRp449
asg29
VQuote: The Real Bug
p450
sg60
(lp451
g1
(g2
g3
(dp452
g63
Vbugs
p453
sg65
Vhttp://kerneltrap.org/bugs
p454
sg67
NstRp455
ag1
(g2
g3
(dp456
g63
VIntel
p457
sg65
Vhttp://kerneltrap.org/Intel
p458
sg67
NstRp459
ag1
(g2
g3
(dp460
g63
VLinus Torvalds
p461
sg65
Vhttp://kerneltrap.org/Linus_Torvalds
p462
sg67
NstRp463
ag1
(g2
g3
(dp464
g63
VLinux
p465
sg65
Vhttp://kerneltrap.org/Linux
p466
sg67
NstRp467
ag1
(g2
g3
(dp468
g63
Vquote
p469
sg65
Vhttp://kerneltrap.org/quote
p470
sg67
NstRp471
ag1
(g2
g3
(dp472
g63
VLinus Torvalds
p473
sg65
Vhttp://kerneltrap.org/taxonomy/term/1092
p474
sg67
NstRp475
ag1
(g2
g3
(dp476
g63
Vlinux-kernel
p477
sg65
Vhttp://kerneltrap.org/taxonomy/term/1094
p478
sg67
NstRp479
asg38
VTue, 30 Sep 2008 15:38:36 +0000
p480
sS'comments'
p481
Vhttp://kerneltrap.org/Quote/The_Real_Bug#comments
p482
sg116
g443
sg117
I00
sS'title_detail'
p483
g1
(g2
g3
(dp484
g9
Vhttp://kerneltrap.org
p485
sg11
S'text/plain'
p486
sg13
Nsg14
g450
stRp487
sg30
g448
sg123
VJeremy
p488
sg125
(lp489
g15
aV*
asg127
Vhttp://kerneltrap.org/16625 at http://kerneltrap.org
p490
stRp491
ag1
(g2
g3
(dp492
S'summary_detail'
p493
g1
(g2
g3
(dp494
g9
Vhttp://kerneltrap.org
p495
sg11
S'text/html'
p496
sg13
Nsg14
V<div class="taxonomy-images"><a href="http://kerneltrap.org/news/linux" class="taxonomy-image-links"><img src="http://kerneltrap.org/files/category_pictures/K-Linux.gif" alt="Linux news" title="Linux news" width="75" height="75" /></a></div><!-- google_ad_section_start --><p>"<i>The patches most people hopefully care about tend to be small details,</i>" noted Linus Torvalds, announcing the 2.6.27-rc6 kernel.  He continued, "<i>and so more regressions should hopefully be closed now, some by just reverting the commits that caused breakage.  I don't think anything special merits explicit comment, but you can get a flavor for things by scanning the appended shortlog.</i>"  Earlier in the <a href="http://kerneltrap.org/mailarchive/linux-kernel/2008/9/10/3249494">announcement email</a>, Linus did note some specifics about which drivers caused the bulk of the patch:</p>\u000a<blockquote><p>"Same old deal - except it's been almost two weeks since -rc5. That said, the diff is actually about the same size, so I guess that means things are calming down. Most of the diff (bulk-wise) is updates to the new gspca (standard USB webcam) driver, although some of it is also removal of the dead miropcm20* driver."</p></blockquote>\u000a<!-- google_ad_section_end --><p><a href="http://kerneltrap.org/node/16577" target="_blank">read more</a></p>
p497
stRp498
sg53
g39
((I2008
I9
I12
I22
I42
I58
I4
I256
I0
t(dtRp499
sg19
(lp500
g1
(g2
g3
(dp501
g22
Vhttp://kerneltrap.org/node/16577
p502
sg11
g24
sg25
g26
stRp503
asg29
V2.6.27-rc6, "Things Are Calming Down"
p504
sg60
(lp505
g1
(g2
g3
(dp506
g63
V-rc
p507
sg65
Vhttp://kerneltrap.org/-rc
p508
sg67
NstRp509
ag1
(g2
g3
(dp510
g63
V-rc6
p511
sg65
Vhttp://kerneltrap.org/-rc6
p512
sg67
NstRp513
ag1
(g2
g3
(dp514
g63
V2.6.27
p515
sg65
Vhttp://kerneltrap.org/taxonomy/term/1305
p516
sg67
NstRp517
ag1
(g2
g3
(dp518
g63
V2.6.27-rc6
p519
sg65
Vhttp://kerneltrap.org/taxonomy/term/1326
p520
sg67
NstRp521
ag1
(g2
g3
(dp522
g63
VLinus Torvalds
p523
sg65
Vhttp://kerneltrap.org/Linus_Torvalds
p524
sg67
NstRp525
ag1
(g2
g3
(dp526
g63
VLinux
p527
sg65
Vhttp://kerneltrap.org/Linux
p528
sg67
NstRp529
ag1
(g2
g3
(dp530
g63
VLinux news
p531
sg65
Vhttp://kerneltrap.org/news/linux
p532
sg67
NstRp533
asg38
VFri, 12 Sep 2008 22:42:58 +0000
p534
sS'comments'
p535
Vhttp://kerneltrap.org/node/16577#comments
p536
sg116
g497
sg117
I00
sS'title_detail'
p537
g1
(g2
g3
(dp538
g9
Vhttp://kerneltrap.org
p539
sg11
S'text/plain'
p540
sg13
Nsg14
g504
stRp541
sg30
g502
sg123
VJeremy
p542
sg125
(lp543
g15
aV*
asg127
Vhttp://kerneltrap.org/16577 at http://kerneltrap.org
p544
stRp545
ag1
(g2
g3
(dp546
S'summary_detail'
p547
g1
(g2
g3
(dp548
g9
Vhttp://kerneltrap.org
p549
sg11
S'text/html'
p550
sg13
Nsg14
V<!-- google_ad_section_start --><p>"Some secure protocols like SSH send encrypted keystrokes as they're typed.  By doing timing analysis you can figure out which keys the user probably typed (keys that are physically close together on a keyboard can be typed faster).  A careful analysis can reveal the length of passwords and probably some of [the] password itself."</p>\u000a<!-- google_ad_section_end -->
p551
stRp552
sg53
g39
((I2008
I9
I12
I22
I31
I29
I4
I256
I0
t(dtRp553
sg19
(lp554
g1
(g2
g3
(dp555
g22
Vhttp://kerneltrap.org/Quote/Careful_Analysis
p556
sg11
g24
sg25
g26
stRp557
asg29
VQuote: Careful Analysis
p558
sg60
(lp559
g1
(g2
g3
(dp560
g63
VKevin Neff
p561
sg65
Vhttp://kerneltrap.org/taxonomy/term/1324
p562
sg67
NstRp563
ag1
(g2
g3
(dp564
g63
VOpenSSH
p565
sg65
Vhttp://kerneltrap.org/OpenSSH
p566
sg67
NstRp567
ag1
(g2
g3
(dp568
g63
Vquote
p569
sg65
Vhttp://kerneltrap.org/quote
p570
sg67
NstRp571
ag1
(g2
g3
(dp572
g63
VKevin Neff
p573
sg65
Vhttp://kerneltrap.org/taxonomy/term/1325
p574
sg67
NstRp575
ag1
(g2
g3
(dp576
g63
Vopenbsd-misc
p577
sg65
Vhttp://kerneltrap.org/taxonomy/term/1100
p578
sg67
NstRp579
asg38
VFri, 12 Sep 2008 22:31:29 +0000
p580
sS'comments'
p581
Vhttp://kerneltrap.org/Quote/Careful_Analysis#comments
p582
sg116
g551
sg117
I00
sS'title_detail'
p583
g1
(g2
g3
(dp584
g9
Vhttp://kerneltrap.org
p585
sg11
S'text/plain'
p586
sg13
Nsg14
g558
stRp587
sg30
g556
sg123
VJeremy
p588
sg125
(lp589
g15
aV*
asg127
Vhttp://kerneltrap.org/16576 at http://kerneltrap.org
p590
stRp591
asS'canto_update'
p592
F1341363348.7357609
sS'headers'
p593
(dp594
S'content-length'
p595
S'28331'
p596
sS'x-powered-by'
p597
S'PHP/5.2.14-pl0-gentoo'
p598
sS'set-cookie'
p599
S'SESSe477fe1e25deac28797ea38831485edd=1301300d8ab1c216b372cad0f3cfdd97; expires=Fri, 27-Jul-2012 04:29:07 GMT; path=/; domain=.kerneltrap.org'
p600
sS'expires'
p601
S'Sun, 19 Nov 1978 05:00:00 GMT'
p602
sS'vary'
p603
S'Accept-encoding'
p604
sS'server'
p605
S'Apache'
p606
sS'last-modified'
p607
S'Wed, 04 Jul 2012 00:55:47 GMT'
p608
sS'connection'
p609
S'close'
p610
sS'cache-control'
p611
S'must-revalidate'
p612
sS'date'
p613
S'Wed, 04 Jul 2012 00:55:47 GMT'
p614
sS'content-type'
p615
S'text/xml; charset=utf-8'
p616
ssS'version'
p617
S'rss20'
p618
sg125
(lp619
sg22
S'http://kerneltrap.org/node/feed'
p620
sS'namespaces'
p621
(dp622
S'dc'
p623
Vhttp://purl.org/dc/elements/1.1/
p624
ssS'canto_version'
p625
(I0
I7
I10
tp626
stRp627
.